
LAB2_EX.elf:     file format elf32-littlearm

Sections:
Idx Name          Size      VMA       LMA       File off  Algn
  0 .isr_vector   0000010c  08000000  08000000  00010000  2**0
                  CONTENTS, ALLOC, LOAD, READONLY, DATA
  1 .text         00001e48  0800010c  0800010c  0001010c  2**2
                  CONTENTS, ALLOC, LOAD, READONLY, CODE
  2 .rodata       00000024  08001f54  08001f54  00011f54  2**2
                  CONTENTS, ALLOC, LOAD, READONLY, DATA
  3 .ARM.extab    00000000  08001f78  08001f78  00020020  2**0
                  CONTENTS
  4 .ARM          00000000  08001f78  08001f78  00020020  2**0
                  CONTENTS
  5 .preinit_array 00000000  08001f78  08001f78  00020020  2**0
                  CONTENTS, ALLOC, LOAD, DATA
  6 .init_array   00000004  08001f78  08001f78  00011f78  2**2
                  CONTENTS, ALLOC, LOAD, DATA
  7 .fini_array   00000004  08001f7c  08001f7c  00011f7c  2**2
                  CONTENTS, ALLOC, LOAD, DATA
  8 .data         00000020  20000000  08001f80  00020000  2**2
                  CONTENTS, ALLOC, LOAD, DATA
  9 .bss          0000007c  20000020  08001fa0  00020020  2**2
                  ALLOC
 10 ._user_heap_stack 00000604  2000009c  08001fa0  0002009c  2**0
                  ALLOC
 11 .ARM.attributes 00000029  00000000  00000000  00020020  2**0
                  CONTENTS, READONLY
 12 .debug_info   00008633  00000000  00000000  00020049  2**0
                  CONTENTS, READONLY, DEBUGGING, OCTETS
 13 .debug_abbrev 000015db  00000000  00000000  0002867c  2**0
                  CONTENTS, READONLY, DEBUGGING, OCTETS
 14 .debug_aranges 00000970  00000000  00000000  00029c58  2**3
                  CONTENTS, READONLY, DEBUGGING, OCTETS
 15 .debug_ranges 000008b8  00000000  00000000  0002a5c8  2**3
                  CONTENTS, READONLY, DEBUGGING, OCTETS
 16 .debug_macro  000162b2  00000000  00000000  0002ae80  2**0
                  CONTENTS, READONLY, DEBUGGING, OCTETS
 17 .debug_line   0000947d  00000000  00000000  00041132  2**0
                  CONTENTS, READONLY, DEBUGGING, OCTETS
 18 .debug_str    00081fae  00000000  00000000  0004a5af  2**0
                  CONTENTS, READONLY, DEBUGGING, OCTETS
 19 .comment      00000053  00000000  00000000  000cc55d  2**0
                  CONTENTS, READONLY
 20 .debug_frame  00002694  00000000  00000000  000cc5b0  2**2
                  CONTENTS, READONLY, DEBUGGING, OCTETS

Disassembly of section .text:

0800010c <__do_global_dtors_aux>:
 800010c:	b510      	push	{r4, lr}
 800010e:	4c05      	ldr	r4, [pc, #20]	; (8000124 <__do_global_dtors_aux+0x18>)
 8000110:	7823      	ldrb	r3, [r4, #0]
 8000112:	b933      	cbnz	r3, 8000122 <__do_global_dtors_aux+0x16>
 8000114:	4b04      	ldr	r3, [pc, #16]	; (8000128 <__do_global_dtors_aux+0x1c>)
 8000116:	b113      	cbz	r3, 800011e <__do_global_dtors_aux+0x12>
 8000118:	4804      	ldr	r0, [pc, #16]	; (800012c <__do_global_dtors_aux+0x20>)
 800011a:	f3af 8000 	nop.w
 800011e:	2301      	movs	r3, #1
 8000120:	7023      	strb	r3, [r4, #0]
 8000122:	bd10      	pop	{r4, pc}
 8000124:	20000020 	.word	0x20000020
 8000128:	00000000 	.word	0x00000000
 800012c:	08001f3c 	.word	0x08001f3c

08000130 <frame_dummy>:
 8000130:	b508      	push	{r3, lr}
 8000132:	4b03      	ldr	r3, [pc, #12]	; (8000140 <frame_dummy+0x10>)
 8000134:	b11b      	cbz	r3, 800013e <frame_dummy+0xe>
 8000136:	4903      	ldr	r1, [pc, #12]	; (8000144 <frame_dummy+0x14>)
 8000138:	4803      	ldr	r0, [pc, #12]	; (8000148 <frame_dummy+0x18>)
 800013a:	f3af 8000 	nop.w
 800013e:	bd08      	pop	{r3, pc}
 8000140:	00000000 	.word	0x00000000
 8000144:	20000024 	.word	0x20000024
 8000148:	08001f3c 	.word	0x08001f3c

0800014c <display7SEG>:

/* USER CODE END PFP */

/* Private user code ---------------------------------------------------------*/
/* USER CODE BEGIN 0 */
void display7SEG(int num){
 800014c:	b580      	push	{r7, lr}
 800014e:	b082      	sub	sp, #8
 8000150:	af00      	add	r7, sp, #0
 8000152:	6078      	str	r0, [r7, #4]
 8000154:	687b      	ldr	r3, [r7, #4]
 8000156:	2b09      	cmp	r3, #9
 8000158:	f200 8180 	bhi.w	800045c <display7SEG+0x310>
 800015c:	a201      	add	r2, pc, #4	; (adr r2, 8000164 <display7SEG+0x18>)
 800015e:	f852 f023 	ldr.w	pc, [r2, r3, lsl #2]
 8000162:	bf00      	nop
 8000164:	0800018d 	.word	0x0800018d
 8000168:	080001d5 	.word	0x080001d5
 800016c:	0800021d 	.word	0x0800021d
 8000170:	08000265 	.word	0x08000265
 8000174:	080002ad 	.word	0x080002ad
 8000178:	080002f5 	.word	0x080002f5
 800017c:	0800033d 	.word	0x0800033d
 8000180:	08000385 	.word	0x08000385
 8000184:	080003cd 	.word	0x080003cd
 8000188:	08000415 	.word	0x08000415
	switch(num){
	case 0:
		HAL_GPIO_WritePin(LED_A_GPIO_Port, LED_A_Pin, RESET);
 800018c:	2200      	movs	r2, #0
 800018e:	2101      	movs	r1, #1
 8000190:	48b5      	ldr	r0, [pc, #724]	; (8000468 <display7SEG+0x31c>)
 8000192:	f000 fecb 	bl	8000f2c <HAL_GPIO_WritePin>
		HAL_GPIO_WritePin(LED_B_GPIO_Port, LED_B_Pin, RESET);
 8000196:	2200      	movs	r2, #0
 8000198:	2102      	movs	r1, #2
 800019a:	48b3      	ldr	r0, [pc, #716]	; (8000468 <display7SEG+0x31c>)
 800019c:	f000 fec6 	bl	8000f2c <HAL_GPIO_WritePin>
		HAL_GPIO_WritePin(LED_C_GPIO_Port, LED_C_Pin, RESET);
 80001a0:	2200      	movs	r2, #0
 80001a2:	2104      	movs	r1, #4
 80001a4:	48b0      	ldr	r0, [pc, #704]	; (8000468 <display7SEG+0x31c>)
 80001a6:	f000 fec1 	bl	8000f2c <HAL_GPIO_WritePin>
		HAL_GPIO_WritePin(LED_D_GPIO_Port, LED_D_Pin, RESET);
 80001aa:	2200      	movs	r2, #0
 80001ac:	2108      	movs	r1, #8
 80001ae:	48ae      	ldr	r0, [pc, #696]	; (8000468 <display7SEG+0x31c>)
 80001b0:	f000 febc 	bl	8000f2c <HAL_GPIO_WritePin>
		HAL_GPIO_WritePin(LED_E_GPIO_Port, LED_E_Pin, RESET);
 80001b4:	2200      	movs	r2, #0
 80001b6:	2110      	movs	r1, #16
 80001b8:	48ab      	ldr	r0, [pc, #684]	; (8000468 <display7SEG+0x31c>)
 80001ba:	f000 feb7 	bl	8000f2c <HAL_GPIO_WritePin>
		HAL_GPIO_WritePin(LED_F_GPIO_Port, LED_F_Pin, RESET);
 80001be:	2200      	movs	r2, #0
 80001c0:	2120      	movs	r1, #32
 80001c2:	48a9      	ldr	r0, [pc, #676]	; (8000468 <display7SEG+0x31c>)
 80001c4:	f000 feb2 	bl	8000f2c <HAL_GPIO_WritePin>
		HAL_GPIO_WritePin(LED_G_GPIO_Port, LED_G_Pin, SET);
 80001c8:	2201      	movs	r2, #1
 80001ca:	2140      	movs	r1, #64	; 0x40
 80001cc:	48a6      	ldr	r0, [pc, #664]	; (8000468 <display7SEG+0x31c>)
 80001ce:	f000 fead 	bl	8000f2c <HAL_GPIO_WritePin>
		break;
 80001d2:	e144      	b.n	800045e <display7SEG+0x312>
	case 1:
		HAL_GPIO_WritePin(LED_A_GPIO_Port, LED_A_Pin, SET);
 80001d4:	2201      	movs	r2, #1
 80001d6:	2101      	movs	r1, #1
 80001d8:	48a3      	ldr	r0, [pc, #652]	; (8000468 <display7SEG+0x31c>)
 80001da:	f000 fea7 	bl	8000f2c <HAL_GPIO_WritePin>
		HAL_GPIO_WritePin(LED_B_GPIO_Port, LED_B_Pin, RESET);
 80001de:	2200      	movs	r2, #0
 80001e0:	2102      	movs	r1, #2
 80001e2:	48a1      	ldr	r0, [pc, #644]	; (8000468 <display7SEG+0x31c>)
 80001e4:	f000 fea2 	bl	8000f2c <HAL_GPIO_WritePin>
		HAL_GPIO_WritePin(LED_C_GPIO_Port, LED_C_Pin, RESET);
 80001e8:	2200      	movs	r2, #0
 80001ea:	2104      	movs	r1, #4
 80001ec:	489e      	ldr	r0, [pc, #632]	; (8000468 <display7SEG+0x31c>)
 80001ee:	f000 fe9d 	bl	8000f2c <HAL_GPIO_WritePin>
		HAL_GPIO_WritePin(LED_D_GPIO_Port, LED_D_Pin, SET);
 80001f2:	2201      	movs	r2, #1
 80001f4:	2108      	movs	r1, #8
 80001f6:	489c      	ldr	r0, [pc, #624]	; (8000468 <display7SEG+0x31c>)
 80001f8:	f000 fe98 	bl	8000f2c <HAL_GPIO_WritePin>
		HAL_GPIO_WritePin(LED_E_GPIO_Port, LED_E_Pin, SET);
 80001fc:	2201      	movs	r2, #1
 80001fe:	2110      	movs	r1, #16
 8000200:	4899      	ldr	r0, [pc, #612]	; (8000468 <display7SEG+0x31c>)
 8000202:	f000 fe93 	bl	8000f2c <HAL_GPIO_WritePin>
		HAL_GPIO_WritePin(LED_F_GPIO_Port, LED_F_Pin, SET);
 8000206:	2201      	movs	r2, #1
 8000208:	2120      	movs	r1, #32
 800020a:	4897      	ldr	r0, [pc, #604]	; (8000468 <display7SEG+0x31c>)
 800020c:	f000 fe8e 	bl	8000f2c <HAL_GPIO_WritePin>
		HAL_GPIO_WritePin(LED_G_GPIO_Port, LED_G_Pin, SET);
 8000210:	2201      	movs	r2, #1
 8000212:	2140      	movs	r1, #64	; 0x40
 8000214:	4894      	ldr	r0, [pc, #592]	; (8000468 <display7SEG+0x31c>)
 8000216:	f000 fe89 	bl	8000f2c <HAL_GPIO_WritePin>
		break;
 800021a:	e120      	b.n	800045e <display7SEG+0x312>
	case 2:
		HAL_GPIO_WritePin(LED_A_GPIO_Port, LED_A_Pin, RESET);
 800021c:	2200      	movs	r2, #0
 800021e:	2101      	movs	r1, #1
 8000220:	4891      	ldr	r0, [pc, #580]	; (8000468 <display7SEG+0x31c>)
 8000222:	f000 fe83 	bl	8000f2c <HAL_GPIO_WritePin>
		HAL_GPIO_WritePin(LED_B_GPIO_Port, LED_B_Pin, RESET);
 8000226:	2200      	movs	r2, #0
 8000228:	2102      	movs	r1, #2
 800022a:	488f      	ldr	r0, [pc, #572]	; (8000468 <display7SEG+0x31c>)
 800022c:	f000 fe7e 	bl	8000f2c <HAL_GPIO_WritePin>
		HAL_GPIO_WritePin(LED_C_GPIO_Port, LED_C_Pin, SET);
 8000230:	2201      	movs	r2, #1
 8000232:	2104      	movs	r1, #4
 8000234:	488c      	ldr	r0, [pc, #560]	; (8000468 <display7SEG+0x31c>)
 8000236:	f000 fe79 	bl	8000f2c <HAL_GPIO_WritePin>
		HAL_GPIO_WritePin(LED_D_GPIO_Port, LED_D_Pin, RESET);
 800023a:	2200      	movs	r2, #0
 800023c:	2108      	movs	r1, #8
 800023e:	488a      	ldr	r0, [pc, #552]	; (8000468 <display7SEG+0x31c>)
 8000240:	f000 fe74 	bl	8000f2c <HAL_GPIO_WritePin>
		HAL_GPIO_WritePin(LED_E_GPIO_Port, LED_E_Pin, RESET);
 8000244:	2200      	movs	r2, #0
 8000246:	2110      	movs	r1, #16
 8000248:	4887      	ldr	r0, [pc, #540]	; (8000468 <display7SEG+0x31c>)
 800024a:	f000 fe6f 	bl	8000f2c <HAL_GPIO_WritePin>
		HAL_GPIO_WritePin(LED_F_GPIO_Port, LED_F_Pin, SET);
 800024e:	2201      	movs	r2, #1
 8000250:	2120      	movs	r1, #32
 8000252:	4885      	ldr	r0, [pc, #532]	; (8000468 <display7SEG+0x31c>)
 8000254:	f000 fe6a 	bl	8000f2c <HAL_GPIO_WritePin>
		HAL_GPIO_WritePin(LED_G_GPIO_Port, LED_G_Pin, RESET);
 8000258:	2200      	movs	r2, #0
 800025a:	2140      	movs	r1, #64	; 0x40
 800025c:	4882      	ldr	r0, [pc, #520]	; (8000468 <display7SEG+0x31c>)
 800025e:	f000 fe65 	bl	8000f2c <HAL_GPIO_WritePin>
		break;
 8000262:	e0fc      	b.n	800045e <display7SEG+0x312>
	case 3:
		HAL_GPIO_WritePin(LED_A_GPIO_Port, LED_A_Pin, RESET);
 8000264:	2200      	movs	r2, #0
 8000266:	2101      	movs	r1, #1
 8000268:	487f      	ldr	r0, [pc, #508]	; (8000468 <display7SEG+0x31c>)
 800026a:	f000 fe5f 	bl	8000f2c <HAL_GPIO_WritePin>
		HAL_GPIO_WritePin(LED_B_GPIO_Port, LED_B_Pin, RESET);
 800026e:	2200      	movs	r2, #0
 8000270:	2102      	movs	r1, #2
 8000272:	487d      	ldr	r0, [pc, #500]	; (8000468 <display7SEG+0x31c>)
 8000274:	f000 fe5a 	bl	8000f2c <HAL_GPIO_WritePin>
		HAL_GPIO_WritePin(LED_C_GPIO_Port, LED_C_Pin, RESET);
 8000278:	2200      	movs	r2, #0
 800027a:	2104      	movs	r1, #4
 800027c:	487a      	ldr	r0, [pc, #488]	; (8000468 <display7SEG+0x31c>)
 800027e:	f000 fe55 	bl	8000f2c <HAL_GPIO_WritePin>
		HAL_GPIO_WritePin(LED_D_GPIO_Port, LED_D_Pin, RESET);
 8000282:	2200      	movs	r2, #0
 8000284:	2108      	movs	r1, #8
 8000286:	4878      	ldr	r0, [pc, #480]	; (8000468 <display7SEG+0x31c>)
 8000288:	f000 fe50 	bl	8000f2c <HAL_GPIO_WritePin>
		HAL_GPIO_WritePin(LED_E_GPIO_Port, LED_E_Pin, SET);
 800028c:	2201      	movs	r2, #1
 800028e:	2110      	movs	r1, #16
 8000290:	4875      	ldr	r0, [pc, #468]	; (8000468 <display7SEG+0x31c>)
 8000292:	f000 fe4b 	bl	8000f2c <HAL_GPIO_WritePin>
		HAL_GPIO_WritePin(LED_F_GPIO_Port, LED_F_Pin, SET);
 8000296:	2201      	movs	r2, #1
 8000298:	2120      	movs	r1, #32
 800029a:	4873      	ldr	r0, [pc, #460]	; (8000468 <display7SEG+0x31c>)
 800029c:	f000 fe46 	bl	8000f2c <HAL_GPIO_WritePin>
		HAL_GPIO_WritePin(LED_G_GPIO_Port, LED_G_Pin, RESET);
 80002a0:	2200      	movs	r2, #0
 80002a2:	2140      	movs	r1, #64	; 0x40
 80002a4:	4870      	ldr	r0, [pc, #448]	; (8000468 <display7SEG+0x31c>)
 80002a6:	f000 fe41 	bl	8000f2c <HAL_GPIO_WritePin>
		break;
 80002aa:	e0d8      	b.n	800045e <display7SEG+0x312>
	case 4:
		HAL_GPIO_WritePin(LED_A_GPIO_Port, LED_A_Pin, SET);
 80002ac:	2201      	movs	r2, #1
 80002ae:	2101      	movs	r1, #1
 80002b0:	486d      	ldr	r0, [pc, #436]	; (8000468 <display7SEG+0x31c>)
 80002b2:	f000 fe3b 	bl	8000f2c <HAL_GPIO_WritePin>
		HAL_GPIO_WritePin(LED_B_GPIO_Port, LED_B_Pin, RESET);
 80002b6:	2200      	movs	r2, #0
 80002b8:	2102      	movs	r1, #2
 80002ba:	486b      	ldr	r0, [pc, #428]	; (8000468 <display7SEG+0x31c>)
 80002bc:	f000 fe36 	bl	8000f2c <HAL_GPIO_WritePin>
		HAL_GPIO_WritePin(LED_C_GPIO_Port, LED_C_Pin, RESET);
 80002c0:	2200      	movs	r2, #0
 80002c2:	2104      	movs	r1, #4
 80002c4:	4868      	ldr	r0, [pc, #416]	; (8000468 <display7SEG+0x31c>)
 80002c6:	f000 fe31 	bl	8000f2c <HAL_GPIO_WritePin>
		HAL_GPIO_WritePin(LED_D_GPIO_Port, LED_D_Pin, SET);
 80002ca:	2201      	movs	r2, #1
 80002cc:	2108      	movs	r1, #8
 80002ce:	4866      	ldr	r0, [pc, #408]	; (8000468 <display7SEG+0x31c>)
 80002d0:	f000 fe2c 	bl	8000f2c <HAL_GPIO_WritePin>
		HAL_GPIO_WritePin(LED_E_GPIO_Port, LED_E_Pin, SET);
 80002d4:	2201      	movs	r2, #1
 80002d6:	2110      	movs	r1, #16
 80002d8:	4863      	ldr	r0, [pc, #396]	; (8000468 <display7SEG+0x31c>)
 80002da:	f000 fe27 	bl	8000f2c <HAL_GPIO_WritePin>
		HAL_GPIO_WritePin(LED_F_GPIO_Port, LED_F_Pin, RESET);
 80002de:	2200      	movs	r2, #0
 80002e0:	2120      	movs	r1, #32
 80002e2:	4861      	ldr	r0, [pc, #388]	; (8000468 <display7SEG+0x31c>)
 80002e4:	f000 fe22 	bl	8000f2c <HAL_GPIO_WritePin>
		HAL_GPIO_WritePin(LED_G_GPIO_Port, LED_G_Pin, RESET);
 80002e8:	2200      	movs	r2, #0
 80002ea:	2140      	movs	r1, #64	; 0x40
 80002ec:	485e      	ldr	r0, [pc, #376]	; (8000468 <display7SEG+0x31c>)
 80002ee:	f000 fe1d 	bl	8000f2c <HAL_GPIO_WritePin>
		break;
 80002f2:	e0b4      	b.n	800045e <display7SEG+0x312>
	case 5:
		HAL_GPIO_WritePin(LED_A_GPIO_Port, LED_A_Pin, RESET);
 80002f4:	2200      	movs	r2, #0
 80002f6:	2101      	movs	r1, #1
 80002f8:	485b      	ldr	r0, [pc, #364]	; (8000468 <display7SEG+0x31c>)
 80002fa:	f000 fe17 	bl	8000f2c <HAL_GPIO_WritePin>
		HAL_GPIO_WritePin(LED_B_GPIO_Port, LED_B_Pin, SET);
 80002fe:	2201      	movs	r2, #1
 8000300:	2102      	movs	r1, #2
 8000302:	4859      	ldr	r0, [pc, #356]	; (8000468 <display7SEG+0x31c>)
 8000304:	f000 fe12 	bl	8000f2c <HAL_GPIO_WritePin>
		HAL_GPIO_WritePin(LED_C_GPIO_Port, LED_C_Pin, RESET);
 8000308:	2200      	movs	r2, #0
 800030a:	2104      	movs	r1, #4
 800030c:	4856      	ldr	r0, [pc, #344]	; (8000468 <display7SEG+0x31c>)
 800030e:	f000 fe0d 	bl	8000f2c <HAL_GPIO_WritePin>
		HAL_GPIO_WritePin(LED_D_GPIO_Port, LED_D_Pin, RESET);
 8000312:	2200      	movs	r2, #0
 8000314:	2108      	movs	r1, #8
 8000316:	4854      	ldr	r0, [pc, #336]	; (8000468 <display7SEG+0x31c>)
 8000318:	f000 fe08 	bl	8000f2c <HAL_GPIO_WritePin>
		HAL_GPIO_WritePin(LED_E_GPIO_Port, LED_E_Pin, SET);
 800031c:	2201      	movs	r2, #1
 800031e:	2110      	movs	r1, #16
 8000320:	4851      	ldr	r0, [pc, #324]	; (8000468 <display7SEG+0x31c>)
 8000322:	f000 fe03 	bl	8000f2c <HAL_GPIO_WritePin>
		HAL_GPIO_WritePin(LED_F_GPIO_Port, LED_F_Pin, RESET);
 8000326:	2200      	movs	r2, #0
 8000328:	2120      	movs	r1, #32
 800032a:	484f      	ldr	r0, [pc, #316]	; (8000468 <display7SEG+0x31c>)
 800032c:	f000 fdfe 	bl	8000f2c <HAL_GPIO_WritePin>
		HAL_GPIO_WritePin(LED_G_GPIO_Port, LED_G_Pin, RESET);
 8000330:	2200      	movs	r2, #0
 8000332:	2140      	movs	r1, #64	; 0x40
 8000334:	484c      	ldr	r0, [pc, #304]	; (8000468 <display7SEG+0x31c>)
 8000336:	f000 fdf9 	bl	8000f2c <HAL_GPIO_WritePin>
		break;
 800033a:	e090      	b.n	800045e <display7SEG+0x312>
	case 6:
		HAL_GPIO_WritePin(LED_A_GPIO_Port, LED_A_Pin, RESET);
 800033c:	2200      	movs	r2, #0
 800033e:	2101      	movs	r1, #1
 8000340:	4849      	ldr	r0, [pc, #292]	; (8000468 <display7SEG+0x31c>)
 8000342:	f000 fdf3 	bl	8000f2c <HAL_GPIO_WritePin>
		HAL_GPIO_WritePin(LED_B_GPIO_Port, LED_B_Pin, SET);
 8000346:	2201      	movs	r2, #1
 8000348:	2102      	movs	r1, #2
 800034a:	4847      	ldr	r0, [pc, #284]	; (8000468 <display7SEG+0x31c>)
 800034c:	f000 fdee 	bl	8000f2c <HAL_GPIO_WritePin>
		HAL_GPIO_WritePin(LED_C_GPIO_Port, LED_C_Pin, RESET);
 8000350:	2200      	movs	r2, #0
 8000352:	2104      	movs	r1, #4
 8000354:	4844      	ldr	r0, [pc, #272]	; (8000468 <display7SEG+0x31c>)
 8000356:	f000 fde9 	bl	8000f2c <HAL_GPIO_WritePin>
		HAL_GPIO_WritePin(LED_D_GPIO_Port, LED_D_Pin, RESET);
 800035a:	2200      	movs	r2, #0
 800035c:	2108      	movs	r1, #8
 800035e:	4842      	ldr	r0, [pc, #264]	; (8000468 <display7SEG+0x31c>)
 8000360:	f000 fde4 	bl	8000f2c <HAL_GPIO_WritePin>
		HAL_GPIO_WritePin(LED_E_GPIO_Port, LED_E_Pin, RESET);
 8000364:	2200      	movs	r2, #0
 8000366:	2110      	movs	r1, #16
 8000368:	483f      	ldr	r0, [pc, #252]	; (8000468 <display7SEG+0x31c>)
 800036a:	f000 fddf 	bl	8000f2c <HAL_GPIO_WritePin>
		HAL_GPIO_WritePin(LED_F_GPIO_Port, LED_F_Pin, RESET);
 800036e:	2200      	movs	r2, #0
 8000370:	2120      	movs	r1, #32
 8000372:	483d      	ldr	r0, [pc, #244]	; (8000468 <display7SEG+0x31c>)
 8000374:	f000 fdda 	bl	8000f2c <HAL_GPIO_WritePin>
		HAL_GPIO_WritePin(LED_G_GPIO_Port, LED_G_Pin, RESET);
 8000378:	2200      	movs	r2, #0
 800037a:	2140      	movs	r1, #64	; 0x40
 800037c:	483a      	ldr	r0, [pc, #232]	; (8000468 <display7SEG+0x31c>)
 800037e:	f000 fdd5 	bl	8000f2c <HAL_GPIO_WritePin>
		break;
 8000382:	e06c      	b.n	800045e <display7SEG+0x312>
	case 7:
		HAL_GPIO_WritePin(LED_A_GPIO_Port, LED_A_Pin, RESET);
 8000384:	2200      	movs	r2, #0
 8000386:	2101      	movs	r1, #1
 8000388:	4837      	ldr	r0, [pc, #220]	; (8000468 <display7SEG+0x31c>)
 800038a:	f000 fdcf 	bl	8000f2c <HAL_GPIO_WritePin>
		HAL_GPIO_WritePin(LED_B_GPIO_Port, LED_B_Pin, RESET);
 800038e:	2200      	movs	r2, #0
 8000390:	2102      	movs	r1, #2
 8000392:	4835      	ldr	r0, [pc, #212]	; (8000468 <display7SEG+0x31c>)
 8000394:	f000 fdca 	bl	8000f2c <HAL_GPIO_WritePin>
		HAL_GPIO_WritePin(LED_C_GPIO_Port, LED_C_Pin, RESET);
 8000398:	2200      	movs	r2, #0
 800039a:	2104      	movs	r1, #4
 800039c:	4832      	ldr	r0, [pc, #200]	; (8000468 <display7SEG+0x31c>)
 800039e:	f000 fdc5 	bl	8000f2c <HAL_GPIO_WritePin>
		HAL_GPIO_WritePin(LED_D_GPIO_Port, LED_D_Pin, SET);
 80003a2:	2201      	movs	r2, #1
 80003a4:	2108      	movs	r1, #8
 80003a6:	4830      	ldr	r0, [pc, #192]	; (8000468 <display7SEG+0x31c>)
 80003a8:	f000 fdc0 	bl	8000f2c <HAL_GPIO_WritePin>
		HAL_GPIO_WritePin(LED_E_GPIO_Port, LED_E_Pin, SET);
 80003ac:	2201      	movs	r2, #1
 80003ae:	2110      	movs	r1, #16
 80003b0:	482d      	ldr	r0, [pc, #180]	; (8000468 <display7SEG+0x31c>)
 80003b2:	f000 fdbb 	bl	8000f2c <HAL_GPIO_WritePin>
		HAL_GPIO_WritePin(LED_F_GPIO_Port, LED_F_Pin, SET);
 80003b6:	2201      	movs	r2, #1
 80003b8:	2120      	movs	r1, #32
 80003ba:	482b      	ldr	r0, [pc, #172]	; (8000468 <display7SEG+0x31c>)
 80003bc:	f000 fdb6 	bl	8000f2c <HAL_GPIO_WritePin>
		HAL_GPIO_WritePin(LED_G_GPIO_Port, LED_G_Pin, SET);
 80003c0:	2201      	movs	r2, #1
 80003c2:	2140      	movs	r1, #64	; 0x40
 80003c4:	4828      	ldr	r0, [pc, #160]	; (8000468 <display7SEG+0x31c>)
 80003c6:	f000 fdb1 	bl	8000f2c <HAL_GPIO_WritePin>
		break;
 80003ca:	e048      	b.n	800045e <display7SEG+0x312>
	case 8:
		HAL_GPIO_WritePin(LED_A_GPIO_Port, LED_A_Pin, RESET);
 80003cc:	2200      	movs	r2, #0
 80003ce:	2101      	movs	r1, #1
 80003d0:	4825      	ldr	r0, [pc, #148]	; (8000468 <display7SEG+0x31c>)
 80003d2:	f000 fdab 	bl	8000f2c <HAL_GPIO_WritePin>
		HAL_GPIO_WritePin(LED_B_GPIO_Port, LED_B_Pin, RESET);
 80003d6:	2200      	movs	r2, #0
 80003d8:	2102      	movs	r1, #2
 80003da:	4823      	ldr	r0, [pc, #140]	; (8000468 <display7SEG+0x31c>)
 80003dc:	f000 fda6 	bl	8000f2c <HAL_GPIO_WritePin>
		HAL_GPIO_WritePin(LED_C_GPIO_Port, LED_C_Pin, RESET);
 80003e0:	2200      	movs	r2, #0
 80003e2:	2104      	movs	r1, #4
 80003e4:	4820      	ldr	r0, [pc, #128]	; (8000468 <display7SEG+0x31c>)
 80003e6:	f000 fda1 	bl	8000f2c <HAL_GPIO_WritePin>
		HAL_GPIO_WritePin(LED_D_GPIO_Port, LED_D_Pin, RESET);
 80003ea:	2200      	movs	r2, #0
 80003ec:	2108      	movs	r1, #8
 80003ee:	481e      	ldr	r0, [pc, #120]	; (8000468 <display7SEG+0x31c>)
 80003f0:	f000 fd9c 	bl	8000f2c <HAL_GPIO_WritePin>
		HAL_GPIO_WritePin(LED_E_GPIO_Port, LED_E_Pin, RESET);
 80003f4:	2200      	movs	r2, #0
 80003f6:	2110      	movs	r1, #16
 80003f8:	481b      	ldr	r0, [pc, #108]	; (8000468 <display7SEG+0x31c>)
 80003fa:	f000 fd97 	bl	8000f2c <HAL_GPIO_WritePin>
		HAL_GPIO_WritePin(LED_F_GPIO_Port, LED_F_Pin, RESET);
 80003fe:	2200      	movs	r2, #0
 8000400:	2120      	movs	r1, #32
 8000402:	4819      	ldr	r0, [pc, #100]	; (8000468 <display7SEG+0x31c>)
 8000404:	f000 fd92 	bl	8000f2c <HAL_GPIO_WritePin>
		HAL_GPIO_WritePin(LED_G_GPIO_Port, LED_G_Pin, RESET);
 8000408:	2200      	movs	r2, #0
 800040a:	2140      	movs	r1, #64	; 0x40
 800040c:	4816      	ldr	r0, [pc, #88]	; (8000468 <display7SEG+0x31c>)
 800040e:	f000 fd8d 	bl	8000f2c <HAL_GPIO_WritePin>
		break;
 8000412:	e024      	b.n	800045e <display7SEG+0x312>
	case 9:
		HAL_GPIO_WritePin(LED_A_GPIO_Port, LED_A_Pin, RESET);
 8000414:	2200      	movs	r2, #0
 8000416:	2101      	movs	r1, #1
 8000418:	4813      	ldr	r0, [pc, #76]	; (8000468 <display7SEG+0x31c>)
 800041a:	f000 fd87 	bl	8000f2c <HAL_GPIO_WritePin>
		HAL_GPIO_WritePin(LED_B_GPIO_Port, LED_B_Pin, RESET);
 800041e:	2200      	movs	r2, #0
 8000420:	2102      	movs	r1, #2
 8000422:	4811      	ldr	r0, [pc, #68]	; (8000468 <display7SEG+0x31c>)
 8000424:	f000 fd82 	bl	8000f2c <HAL_GPIO_WritePin>
		HAL_GPIO_WritePin(LED_C_GPIO_Port, LED_C_Pin, RESET);
 8000428:	2200      	movs	r2, #0
 800042a:	2104      	movs	r1, #4
 800042c:	480e      	ldr	r0, [pc, #56]	; (8000468 <display7SEG+0x31c>)
 800042e:	f000 fd7d 	bl	8000f2c <HAL_GPIO_WritePin>
		HAL_GPIO_WritePin(LED_D_GPIO_Port, LED_D_Pin, RESET);
 8000432:	2200      	movs	r2, #0
 8000434:	2108      	movs	r1, #8
 8000436:	480c      	ldr	r0, [pc, #48]	; (8000468 <display7SEG+0x31c>)
 8000438:	f000 fd78 	bl	8000f2c <HAL_GPIO_WritePin>
		HAL_GPIO_WritePin(LED_E_GPIO_Port, LED_E_Pin, SET);
 800043c:	2201      	movs	r2, #1
 800043e:	2110      	movs	r1, #16
 8000440:	4809      	ldr	r0, [pc, #36]	; (8000468 <display7SEG+0x31c>)
 8000442:	f000 fd73 	bl	8000f2c <HAL_GPIO_WritePin>
		HAL_GPIO_WritePin(LED_F_GPIO_Port, LED_F_Pin, RESET);
 8000446:	2200      	movs	r2, #0
 8000448:	2120      	movs	r1, #32
 800044a:	4807      	ldr	r0, [pc, #28]	; (8000468 <display7SEG+0x31c>)
 800044c:	f000 fd6e 	bl	8000f2c <HAL_GPIO_WritePin>
		HAL_GPIO_WritePin(LED_G_GPIO_Port, LED_G_Pin, RESET);
 8000450:	2200      	movs	r2, #0
 8000452:	2140      	movs	r1, #64	; 0x40
 8000454:	4804      	ldr	r0, [pc, #16]	; (8000468 <display7SEG+0x31c>)
 8000456:	f000 fd69 	bl	8000f2c <HAL_GPIO_WritePin>
		break;
 800045a:	e000      	b.n	800045e <display7SEG+0x312>
	default:
		break;
 800045c:	bf00      	nop
	}
}
 800045e:	bf00      	nop
 8000460:	3708      	adds	r7, #8
 8000462:	46bd      	mov	sp, r7
 8000464:	bd80      	pop	{r7, pc}
 8000466:	bf00      	nop
 8000468:	40010c00 	.word	0x40010c00

0800046c <update7SEG>:

const int MAX_LED = 4;
int index_led = 0;
int led_buffer[4] = {1, 2, 3, 4};
void update7SEG(int index){
 800046c:	b580      	push	{r7, lr}
 800046e:	b082      	sub	sp, #8
 8000470:	af00      	add	r7, sp, #0
 8000472:	6078      	str	r0, [r7, #4]
 8000474:	687b      	ldr	r3, [r7, #4]
 8000476:	2b03      	cmp	r3, #3
 8000478:	d87a      	bhi.n	8000570 <update7SEG+0x104>
 800047a:	a201      	add	r2, pc, #4	; (adr r2, 8000480 <update7SEG+0x14>)
 800047c:	f852 f023 	ldr.w	pc, [r2, r3, lsl #2]
 8000480:	08000491 	.word	0x08000491
 8000484:	080004c9 	.word	0x080004c9
 8000488:	08000501 	.word	0x08000501
 800048c:	08000539 	.word	0x08000539
	switch(index){
	case 0:
		// Display the first 7 SEG with led_buffer [0]
		// enable the first LED_7SEG , disable other LED_7SEG
		HAL_GPIO_WritePin(EN0_GPIO_Port, EN0_Pin, RESET);
 8000490:	2200      	movs	r2, #0
 8000492:	2140      	movs	r1, #64	; 0x40
 8000494:	4839      	ldr	r0, [pc, #228]	; (800057c <update7SEG+0x110>)
 8000496:	f000 fd49 	bl	8000f2c <HAL_GPIO_WritePin>
		HAL_GPIO_WritePin(EN1_GPIO_Port, EN1_Pin, SET);
 800049a:	2201      	movs	r2, #1
 800049c:	2180      	movs	r1, #128	; 0x80
 800049e:	4837      	ldr	r0, [pc, #220]	; (800057c <update7SEG+0x110>)
 80004a0:	f000 fd44 	bl	8000f2c <HAL_GPIO_WritePin>
		HAL_GPIO_WritePin(EN2_GPIO_Port, EN2_Pin, SET);
 80004a4:	2201      	movs	r2, #1
 80004a6:	f44f 7180 	mov.w	r1, #256	; 0x100
 80004aa:	4834      	ldr	r0, [pc, #208]	; (800057c <update7SEG+0x110>)
 80004ac:	f000 fd3e 	bl	8000f2c <HAL_GPIO_WritePin>
		HAL_GPIO_WritePin(EN3_GPIO_Port, EN3_Pin, SET);
 80004b0:	2201      	movs	r2, #1
 80004b2:	f44f 7100 	mov.w	r1, #512	; 0x200
 80004b6:	4831      	ldr	r0, [pc, #196]	; (800057c <update7SEG+0x110>)
 80004b8:	f000 fd38 	bl	8000f2c <HAL_GPIO_WritePin>
		// display first value in led_buffer[]
		display7SEG(led_buffer[0]);
 80004bc:	4b30      	ldr	r3, [pc, #192]	; (8000580 <update7SEG+0x114>)
 80004be:	681b      	ldr	r3, [r3, #0]
 80004c0:	4618      	mov	r0, r3
 80004c2:	f7ff fe43 	bl	800014c <display7SEG>
		break;
 80004c6:	e054      	b.n	8000572 <update7SEG+0x106>
	case 1:
		// Display the second 7 SEG with led_buffer [1]
		// enable the second LED_7SEG, disable other LED_7SEG
		HAL_GPIO_WritePin(EN0_GPIO_Port, EN0_Pin, SET);
 80004c8:	2201      	movs	r2, #1
 80004ca:	2140      	movs	r1, #64	; 0x40
 80004cc:	482b      	ldr	r0, [pc, #172]	; (800057c <update7SEG+0x110>)
 80004ce:	f000 fd2d 	bl	8000f2c <HAL_GPIO_WritePin>
		HAL_GPIO_WritePin(EN1_GPIO_Port, EN1_Pin, RESET);
 80004d2:	2200      	movs	r2, #0
 80004d4:	2180      	movs	r1, #128	; 0x80
 80004d6:	4829      	ldr	r0, [pc, #164]	; (800057c <update7SEG+0x110>)
 80004d8:	f000 fd28 	bl	8000f2c <HAL_GPIO_WritePin>
		HAL_GPIO_WritePin(EN2_GPIO_Port, EN2_Pin, SET);
 80004dc:	2201      	movs	r2, #1
 80004de:	f44f 7180 	mov.w	r1, #256	; 0x100
 80004e2:	4826      	ldr	r0, [pc, #152]	; (800057c <update7SEG+0x110>)
 80004e4:	f000 fd22 	bl	8000f2c <HAL_GPIO_WritePin>
		HAL_GPIO_WritePin(EN3_GPIO_Port, EN3_Pin, SET);
 80004e8:	2201      	movs	r2, #1
 80004ea:	f44f 7100 	mov.w	r1, #512	; 0x200
 80004ee:	4823      	ldr	r0, [pc, #140]	; (800057c <update7SEG+0x110>)
 80004f0:	f000 fd1c 	bl	8000f2c <HAL_GPIO_WritePin>
		// display second value in led_buffer[]
		display7SEG(led_buffer[1]);
 80004f4:	4b22      	ldr	r3, [pc, #136]	; (8000580 <update7SEG+0x114>)
 80004f6:	685b      	ldr	r3, [r3, #4]
 80004f8:	4618      	mov	r0, r3
 80004fa:	f7ff fe27 	bl	800014c <display7SEG>
		break;
 80004fe:	e038      	b.n	8000572 <update7SEG+0x106>
	case 2:
		// Display the third 7 SEG with led_buffer [2]
		// enable the third LED_7SEG, disable other LED_7SEG
		HAL_GPIO_WritePin(EN0_GPIO_Port, EN0_Pin, SET);
 8000500:	2201      	movs	r2, #1
 8000502:	2140      	movs	r1, #64	; 0x40
 8000504:	481d      	ldr	r0, [pc, #116]	; (800057c <update7SEG+0x110>)
 8000506:	f000 fd11 	bl	8000f2c <HAL_GPIO_WritePin>
		HAL_GPIO_WritePin(EN1_GPIO_Port, EN1_Pin, SET);
 800050a:	2201      	movs	r2, #1
 800050c:	2180      	movs	r1, #128	; 0x80
 800050e:	481b      	ldr	r0, [pc, #108]	; (800057c <update7SEG+0x110>)
 8000510:	f000 fd0c 	bl	8000f2c <HAL_GPIO_WritePin>
		HAL_GPIO_WritePin(EN2_GPIO_Port, EN2_Pin, RESET);
 8000514:	2200      	movs	r2, #0
 8000516:	f44f 7180 	mov.w	r1, #256	; 0x100
 800051a:	4818      	ldr	r0, [pc, #96]	; (800057c <update7SEG+0x110>)
 800051c:	f000 fd06 	bl	8000f2c <HAL_GPIO_WritePin>
		HAL_GPIO_WritePin(EN3_GPIO_Port, EN3_Pin, SET);
 8000520:	2201      	movs	r2, #1
 8000522:	f44f 7100 	mov.w	r1, #512	; 0x200
 8000526:	4815      	ldr	r0, [pc, #84]	; (800057c <update7SEG+0x110>)
 8000528:	f000 fd00 	bl	8000f2c <HAL_GPIO_WritePin>
		// display third value in led_buffer[]
		display7SEG(led_buffer[2]);
 800052c:	4b14      	ldr	r3, [pc, #80]	; (8000580 <update7SEG+0x114>)
 800052e:	689b      	ldr	r3, [r3, #8]
 8000530:	4618      	mov	r0, r3
 8000532:	f7ff fe0b 	bl	800014c <display7SEG>
		break;
 8000536:	e01c      	b.n	8000572 <update7SEG+0x106>
	case 3:
		// Display the fourth 7 SEG with led_buffer [3]
		// enable the fourth LED_7SEG, disable other LED_7SEG
		HAL_GPIO_WritePin(EN0_GPIO_Port, EN0_Pin, SET);
 8000538:	2201      	movs	r2, #1
 800053a:	2140      	movs	r1, #64	; 0x40
 800053c:	480f      	ldr	r0, [pc, #60]	; (800057c <update7SEG+0x110>)
 800053e:	f000 fcf5 	bl	8000f2c <HAL_GPIO_WritePin>
		HAL_GPIO_WritePin(EN1_GPIO_Port, EN1_Pin, SET);
 8000542:	2201      	movs	r2, #1
 8000544:	2180      	movs	r1, #128	; 0x80
 8000546:	480d      	ldr	r0, [pc, #52]	; (800057c <update7SEG+0x110>)
 8000548:	f000 fcf0 	bl	8000f2c <HAL_GPIO_WritePin>
		HAL_GPIO_WritePin(EN2_GPIO_Port, EN2_Pin, SET);
 800054c:	2201      	movs	r2, #1
 800054e:	f44f 7180 	mov.w	r1, #256	; 0x100
 8000552:	480a      	ldr	r0, [pc, #40]	; (800057c <update7SEG+0x110>)
 8000554:	f000 fcea 	bl	8000f2c <HAL_GPIO_WritePin>
		HAL_GPIO_WritePin(EN3_GPIO_Port, EN3_Pin, RESET);
 8000558:	2200      	movs	r2, #0
 800055a:	f44f 7100 	mov.w	r1, #512	; 0x200
 800055e:	4807      	ldr	r0, [pc, #28]	; (800057c <update7SEG+0x110>)
 8000560:	f000 fce4 	bl	8000f2c <HAL_GPIO_WritePin>
		// display fourth value in led_buffer[]
		display7SEG(led_buffer[3]);
 8000564:	4b06      	ldr	r3, [pc, #24]	; (8000580 <update7SEG+0x114>)
 8000566:	68db      	ldr	r3, [r3, #12]
 8000568:	4618      	mov	r0, r3
 800056a:	f7ff fdef 	bl	800014c <display7SEG>
		break;
 800056e:	e000      	b.n	8000572 <update7SEG+0x106>
	default: break;
 8000570:	bf00      	nop
	}
}
 8000572:	bf00      	nop
 8000574:	3708      	adds	r7, #8
 8000576:	46bd      	mov	sp, r7
 8000578:	bd80      	pop	{r7, pc}
 800057a:	bf00      	nop
 800057c:	40010800 	.word	0x40010800
 8000580:	20000000 	.word	0x20000000

08000584 <main>:
/**
  * @brief  The application entry point.
  * @retval int
  */
int main(void)
{
 8000584:	b580      	push	{r7, lr}
 8000586:	af00      	add	r7, sp, #0
  /* USER CODE END 1 */

  /* MCU Configuration--------------------------------------------------------*/

  /* Reset of all peripherals, Initializes the Flash interface and the Systick. */
  HAL_Init();
 8000588:	f000 f9e6 	bl	8000958 <HAL_Init>
  /* USER CODE BEGIN Init */

  /* USER CODE END Init */

  /* Configure the system clock */
  SystemClock_Config();
 800058c:	f000 f80e 	bl	80005ac <SystemClock_Config>
  /* USER CODE BEGIN SysInit */

  /* USER CODE END SysInit */

  /* Initialize all configured peripherals */
  MX_GPIO_Init();
 8000590:	f000 f894 	bl	80006bc <MX_GPIO_Init>
  MX_TIM2_Init();
 8000594:	f000 f846 	bl	8000624 <MX_TIM2_Init>
  /* USER CODE BEGIN 2 */
  HAL_TIM_Base_Start_IT(&htim2);
 8000598:	4803      	ldr	r0, [pc, #12]	; (80005a8 <main+0x24>)
 800059a:	f001 f90b 	bl	80017b4 <HAL_TIM_Base_Start_IT>
  /* USER CODE END 2 */

  /* Infinite loop */
  /* USER CODE BEGIN WHILE */
  setTimer1(100);
 800059e:	2064      	movs	r0, #100	; 0x64
 80005a0:	f000 f912 	bl	80007c8 <setTimer1>
  while (1)
 80005a4:	e7fe      	b.n	80005a4 <main+0x20>
 80005a6:	bf00      	nop
 80005a8:	20000040 	.word	0x20000040

080005ac <SystemClock_Config>:
/**
  * @brief System Clock Configuration
  * @retval None
  */
void SystemClock_Config(void)
{
 80005ac:	b580      	push	{r7, lr}
 80005ae:	b090      	sub	sp, #64	; 0x40
 80005b0:	af00      	add	r7, sp, #0
  RCC_OscInitTypeDef RCC_OscInitStruct = {0};
 80005b2:	f107 0318 	add.w	r3, r7, #24
 80005b6:	2228      	movs	r2, #40	; 0x28
 80005b8:	2100      	movs	r1, #0
 80005ba:	4618      	mov	r0, r3
 80005bc:	f001 fcb6 	bl	8001f2c <memset>
  RCC_ClkInitTypeDef RCC_ClkInitStruct = {0};
 80005c0:	1d3b      	adds	r3, r7, #4
 80005c2:	2200      	movs	r2, #0
 80005c4:	601a      	str	r2, [r3, #0]
 80005c6:	605a      	str	r2, [r3, #4]
 80005c8:	609a      	str	r2, [r3, #8]
 80005ca:	60da      	str	r2, [r3, #12]
 80005cc:	611a      	str	r2, [r3, #16]

  /** Initializes the RCC Oscillators according to the specified parameters
  * in the RCC_OscInitTypeDef structure.
  */
  RCC_OscInitStruct.OscillatorType = RCC_OSCILLATORTYPE_HSI;
 80005ce:	2302      	movs	r3, #2
 80005d0:	61bb      	str	r3, [r7, #24]
  RCC_OscInitStruct.HSIState = RCC_HSI_ON;
 80005d2:	2301      	movs	r3, #1
 80005d4:	62bb      	str	r3, [r7, #40]	; 0x28
  RCC_OscInitStruct.HSICalibrationValue = RCC_HSICALIBRATION_DEFAULT;
 80005d6:	2310      	movs	r3, #16
 80005d8:	62fb      	str	r3, [r7, #44]	; 0x2c
  RCC_OscInitStruct.PLL.PLLState = RCC_PLL_NONE;
 80005da:	2300      	movs	r3, #0
 80005dc:	637b      	str	r3, [r7, #52]	; 0x34
  if (HAL_RCC_OscConfig(&RCC_OscInitStruct) != HAL_OK)
 80005de:	f107 0318 	add.w	r3, r7, #24
 80005e2:	4618      	mov	r0, r3
 80005e4:	f000 fcba 	bl	8000f5c <HAL_RCC_OscConfig>
 80005e8:	4603      	mov	r3, r0
 80005ea:	2b00      	cmp	r3, #0
 80005ec:	d001      	beq.n	80005f2 <SystemClock_Config+0x46>
  {
    Error_Handler();
 80005ee:	f000 f8e5 	bl	80007bc <Error_Handler>
  }
  /** Initializes the CPU, AHB and APB buses clocks
  */
  RCC_ClkInitStruct.ClockType = RCC_CLOCKTYPE_HCLK|RCC_CLOCKTYPE_SYSCLK
 80005f2:	230f      	movs	r3, #15
 80005f4:	607b      	str	r3, [r7, #4]
                              |RCC_CLOCKTYPE_PCLK1|RCC_CLOCKTYPE_PCLK2;
  RCC_ClkInitStruct.SYSCLKSource = RCC_SYSCLKSOURCE_HSI;
 80005f6:	2300      	movs	r3, #0
 80005f8:	60bb      	str	r3, [r7, #8]
  RCC_ClkInitStruct.AHBCLKDivider = RCC_SYSCLK_DIV1;
 80005fa:	2300      	movs	r3, #0
 80005fc:	60fb      	str	r3, [r7, #12]
  RCC_ClkInitStruct.APB1CLKDivider = RCC_HCLK_DIV1;
 80005fe:	2300      	movs	r3, #0
 8000600:	613b      	str	r3, [r7, #16]
  RCC_ClkInitStruct.APB2CLKDivider = RCC_HCLK_DIV1;
 8000602:	2300      	movs	r3, #0
 8000604:	617b      	str	r3, [r7, #20]

  if (HAL_RCC_ClockConfig(&RCC_ClkInitStruct, FLASH_LATENCY_0) != HAL_OK)
 8000606:	1d3b      	adds	r3, r7, #4
 8000608:	2100      	movs	r1, #0
 800060a:	4618      	mov	r0, r3
 800060c:	f000 ff26 	bl	800145c <HAL_RCC_ClockConfig>
 8000610:	4603      	mov	r3, r0
 8000612:	2b00      	cmp	r3, #0
 8000614:	d001      	beq.n	800061a <SystemClock_Config+0x6e>
  {
    Error_Handler();
 8000616:	f000 f8d1 	bl	80007bc <Error_Handler>
  }
}
 800061a:	bf00      	nop
 800061c:	3740      	adds	r7, #64	; 0x40
 800061e:	46bd      	mov	sp, r7
 8000620:	bd80      	pop	{r7, pc}
	...

08000624 <MX_TIM2_Init>:
  * @brief TIM2 Initialization Function
  * @param None
  * @retval None
  */
static void MX_TIM2_Init(void)
{
 8000624:	b580      	push	{r7, lr}
 8000626:	b086      	sub	sp, #24
 8000628:	af00      	add	r7, sp, #0

  /* USER CODE BEGIN TIM2_Init 0 */

  /* USER CODE END TIM2_Init 0 */

  TIM_ClockConfigTypeDef sClockSourceConfig = {0};
 800062a:	f107 0308 	add.w	r3, r7, #8
 800062e:	2200      	movs	r2, #0
 8000630:	601a      	str	r2, [r3, #0]
 8000632:	605a      	str	r2, [r3, #4]
 8000634:	609a      	str	r2, [r3, #8]
 8000636:	60da      	str	r2, [r3, #12]
  TIM_MasterConfigTypeDef sMasterConfig = {0};
 8000638:	463b      	mov	r3, r7
 800063a:	2200      	movs	r2, #0
 800063c:	601a      	str	r2, [r3, #0]
 800063e:	605a      	str	r2, [r3, #4]

  /* USER CODE BEGIN TIM2_Init 1 */

  /* USER CODE END TIM2_Init 1 */
  htim2.Instance = TIM2;
 8000640:	4b1d      	ldr	r3, [pc, #116]	; (80006b8 <MX_TIM2_Init+0x94>)
 8000642:	f04f 4280 	mov.w	r2, #1073741824	; 0x40000000
 8000646:	601a      	str	r2, [r3, #0]
  htim2.Init.Prescaler = 7999;
 8000648:	4b1b      	ldr	r3, [pc, #108]	; (80006b8 <MX_TIM2_Init+0x94>)
 800064a:	f641 723f 	movw	r2, #7999	; 0x1f3f
 800064e:	605a      	str	r2, [r3, #4]
  htim2.Init.CounterMode = TIM_COUNTERMODE_UP;
 8000650:	4b19      	ldr	r3, [pc, #100]	; (80006b8 <MX_TIM2_Init+0x94>)
 8000652:	2200      	movs	r2, #0
 8000654:	609a      	str	r2, [r3, #8]
  htim2.Init.Period = 9;
 8000656:	4b18      	ldr	r3, [pc, #96]	; (80006b8 <MX_TIM2_Init+0x94>)
 8000658:	2209      	movs	r2, #9
 800065a:	60da      	str	r2, [r3, #12]
  htim2.Init.ClockDivision = TIM_CLOCKDIVISION_DIV1;
 800065c:	4b16      	ldr	r3, [pc, #88]	; (80006b8 <MX_TIM2_Init+0x94>)
 800065e:	2200      	movs	r2, #0
 8000660:	611a      	str	r2, [r3, #16]
  htim2.Init.AutoReloadPreload = TIM_AUTORELOAD_PRELOAD_DISABLE;
 8000662:	4b15      	ldr	r3, [pc, #84]	; (80006b8 <MX_TIM2_Init+0x94>)
 8000664:	2200      	movs	r2, #0
 8000666:	619a      	str	r2, [r3, #24]
  if (HAL_TIM_Base_Init(&htim2) != HAL_OK)
 8000668:	4813      	ldr	r0, [pc, #76]	; (80006b8 <MX_TIM2_Init+0x94>)
 800066a:	f001 f853 	bl	8001714 <HAL_TIM_Base_Init>
 800066e:	4603      	mov	r3, r0
 8000670:	2b00      	cmp	r3, #0
 8000672:	d001      	beq.n	8000678 <MX_TIM2_Init+0x54>
  {
    Error_Handler();
 8000674:	f000 f8a2 	bl	80007bc <Error_Handler>
  }
  sClockSourceConfig.ClockSource = TIM_CLOCKSOURCE_INTERNAL;
 8000678:	f44f 5380 	mov.w	r3, #4096	; 0x1000
 800067c:	60bb      	str	r3, [r7, #8]
  if (HAL_TIM_ConfigClockSource(&htim2, &sClockSourceConfig) != HAL_OK)
 800067e:	f107 0308 	add.w	r3, r7, #8
 8000682:	4619      	mov	r1, r3
 8000684:	480c      	ldr	r0, [pc, #48]	; (80006b8 <MX_TIM2_Init+0x94>)
 8000686:	f001 f9e9 	bl	8001a5c <HAL_TIM_ConfigClockSource>
 800068a:	4603      	mov	r3, r0
 800068c:	2b00      	cmp	r3, #0
 800068e:	d001      	beq.n	8000694 <MX_TIM2_Init+0x70>
  {
    Error_Handler();
 8000690:	f000 f894 	bl	80007bc <Error_Handler>
  }
  sMasterConfig.MasterOutputTrigger = TIM_TRGO_RESET;
 8000694:	2300      	movs	r3, #0
 8000696:	603b      	str	r3, [r7, #0]
  sMasterConfig.MasterSlaveMode = TIM_MASTERSLAVEMODE_DISABLE;
 8000698:	2300      	movs	r3, #0
 800069a:	607b      	str	r3, [r7, #4]
  if (HAL_TIMEx_MasterConfigSynchronization(&htim2, &sMasterConfig) != HAL_OK)
 800069c:	463b      	mov	r3, r7
 800069e:	4619      	mov	r1, r3
 80006a0:	4805      	ldr	r0, [pc, #20]	; (80006b8 <MX_TIM2_Init+0x94>)
 80006a2:	f001 fbb5 	bl	8001e10 <HAL_TIMEx_MasterConfigSynchronization>
 80006a6:	4603      	mov	r3, r0
 80006a8:	2b00      	cmp	r3, #0
 80006aa:	d001      	beq.n	80006b0 <MX_TIM2_Init+0x8c>
  {
    Error_Handler();
 80006ac:	f000 f886 	bl	80007bc <Error_Handler>
  }
  /* USER CODE BEGIN TIM2_Init 2 */

  /* USER CODE END TIM2_Init 2 */

}
 80006b0:	bf00      	nop
 80006b2:	3718      	adds	r7, #24
 80006b4:	46bd      	mov	sp, r7
 80006b6:	bd80      	pop	{r7, pc}
 80006b8:	20000040 	.word	0x20000040

080006bc <MX_GPIO_Init>:
  * @brief GPIO Initialization Function
  * @param None
  * @retval None
  */
static void MX_GPIO_Init(void)
{
 80006bc:	b580      	push	{r7, lr}
 80006be:	b086      	sub	sp, #24
 80006c0:	af00      	add	r7, sp, #0
  GPIO_InitTypeDef GPIO_InitStruct = {0};
 80006c2:	f107 0308 	add.w	r3, r7, #8
 80006c6:	2200      	movs	r2, #0
 80006c8:	601a      	str	r2, [r3, #0]
 80006ca:	605a      	str	r2, [r3, #4]
 80006cc:	609a      	str	r2, [r3, #8]
 80006ce:	60da      	str	r2, [r3, #12]

  /* GPIO Ports Clock Enable */
  __HAL_RCC_GPIOA_CLK_ENABLE();
 80006d0:	4b21      	ldr	r3, [pc, #132]	; (8000758 <MX_GPIO_Init+0x9c>)
 80006d2:	699b      	ldr	r3, [r3, #24]
 80006d4:	4a20      	ldr	r2, [pc, #128]	; (8000758 <MX_GPIO_Init+0x9c>)
 80006d6:	f043 0304 	orr.w	r3, r3, #4
 80006da:	6193      	str	r3, [r2, #24]
 80006dc:	4b1e      	ldr	r3, [pc, #120]	; (8000758 <MX_GPIO_Init+0x9c>)
 80006de:	699b      	ldr	r3, [r3, #24]
 80006e0:	f003 0304 	and.w	r3, r3, #4
 80006e4:	607b      	str	r3, [r7, #4]
 80006e6:	687b      	ldr	r3, [r7, #4]
  __HAL_RCC_GPIOB_CLK_ENABLE();
 80006e8:	4b1b      	ldr	r3, [pc, #108]	; (8000758 <MX_GPIO_Init+0x9c>)
 80006ea:	699b      	ldr	r3, [r3, #24]
 80006ec:	4a1a      	ldr	r2, [pc, #104]	; (8000758 <MX_GPIO_Init+0x9c>)
 80006ee:	f043 0308 	orr.w	r3, r3, #8
 80006f2:	6193      	str	r3, [r2, #24]
 80006f4:	4b18      	ldr	r3, [pc, #96]	; (8000758 <MX_GPIO_Init+0x9c>)
 80006f6:	699b      	ldr	r3, [r3, #24]
 80006f8:	f003 0308 	and.w	r3, r3, #8
 80006fc:	603b      	str	r3, [r7, #0]
 80006fe:	683b      	ldr	r3, [r7, #0]

  /*Configure GPIO pin Output Level */
  HAL_GPIO_WritePin(GPIOA, DOT_Pin|LED_Pin|EN0_Pin|EN1_Pin
 8000700:	2200      	movs	r2, #0
 8000702:	f44f 717c 	mov.w	r1, #1008	; 0x3f0
 8000706:	4815      	ldr	r0, [pc, #84]	; (800075c <MX_GPIO_Init+0xa0>)
 8000708:	f000 fc10 	bl	8000f2c <HAL_GPIO_WritePin>
                          |EN2_Pin|EN3_Pin, GPIO_PIN_RESET);

  /*Configure GPIO pin Output Level */
  HAL_GPIO_WritePin(GPIOB, LED_A_Pin|LED_B_Pin|LED_C_Pin|LED_D_Pin
 800070c:	2200      	movs	r2, #0
 800070e:	217f      	movs	r1, #127	; 0x7f
 8000710:	4813      	ldr	r0, [pc, #76]	; (8000760 <MX_GPIO_Init+0xa4>)
 8000712:	f000 fc0b 	bl	8000f2c <HAL_GPIO_WritePin>
                          |LED_E_Pin|LED_F_Pin|LED_G_Pin, GPIO_PIN_RESET);

  /*Configure GPIO pins : DOT_Pin LED_Pin EN0_Pin EN1_Pin
                           EN2_Pin EN3_Pin */
  GPIO_InitStruct.Pin = DOT_Pin|LED_Pin|EN0_Pin|EN1_Pin
 8000716:	f44f 737c 	mov.w	r3, #1008	; 0x3f0
 800071a:	60bb      	str	r3, [r7, #8]
                          |EN2_Pin|EN3_Pin;
  GPIO_InitStruct.Mode = GPIO_MODE_OUTPUT_PP;
 800071c:	2301      	movs	r3, #1
 800071e:	60fb      	str	r3, [r7, #12]
  GPIO_InitStruct.Pull = GPIO_NOPULL;
 8000720:	2300      	movs	r3, #0
 8000722:	613b      	str	r3, [r7, #16]
  GPIO_InitStruct.Speed = GPIO_SPEED_FREQ_LOW;
 8000724:	2302      	movs	r3, #2
 8000726:	617b      	str	r3, [r7, #20]
  HAL_GPIO_Init(GPIOA, &GPIO_InitStruct);
 8000728:	f107 0308 	add.w	r3, r7, #8
 800072c:	4619      	mov	r1, r3
 800072e:	480b      	ldr	r0, [pc, #44]	; (800075c <MX_GPIO_Init+0xa0>)
 8000730:	f000 fa82 	bl	8000c38 <HAL_GPIO_Init>

  /*Configure GPIO pins : LED_A_Pin LED_B_Pin LED_C_Pin LED_D_Pin
                           LED_E_Pin LED_F_Pin LED_G_Pin */
  GPIO_InitStruct.Pin = LED_A_Pin|LED_B_Pin|LED_C_Pin|LED_D_Pin
 8000734:	237f      	movs	r3, #127	; 0x7f
 8000736:	60bb      	str	r3, [r7, #8]
                          |LED_E_Pin|LED_F_Pin|LED_G_Pin;
  GPIO_InitStruct.Mode = GPIO_MODE_OUTPUT_PP;
 8000738:	2301      	movs	r3, #1
 800073a:	60fb      	str	r3, [r7, #12]
  GPIO_InitStruct.Pull = GPIO_NOPULL;
 800073c:	2300      	movs	r3, #0
 800073e:	613b      	str	r3, [r7, #16]
  GPIO_InitStruct.Speed = GPIO_SPEED_FREQ_LOW;
 8000740:	2302      	movs	r3, #2
 8000742:	617b      	str	r3, [r7, #20]
  HAL_GPIO_Init(GPIOB, &GPIO_InitStruct);
 8000744:	f107 0308 	add.w	r3, r7, #8
 8000748:	4619      	mov	r1, r3
 800074a:	4805      	ldr	r0, [pc, #20]	; (8000760 <MX_GPIO_Init+0xa4>)
 800074c:	f000 fa74 	bl	8000c38 <HAL_GPIO_Init>

}
 8000750:	bf00      	nop
 8000752:	3718      	adds	r7, #24
 8000754:	46bd      	mov	sp, r7
 8000756:	bd80      	pop	{r7, pc}
 8000758:	40021000 	.word	0x40021000
 800075c:	40010800 	.word	0x40010800
 8000760:	40010c00 	.word	0x40010c00

08000764 <HAL_TIM_PeriodElapsedCallback>:

/* USER CODE BEGIN 4 */
int timer_led_count = 3;//	count for update variable "index_led"
						//value using at update7SEG() function
void HAL_TIM_PeriodElapsedCallback(TIM_HandleTypeDef *htim){
 8000764:	b580      	push	{r7, lr}
 8000766:	b082      	sub	sp, #8
 8000768:	af00      	add	r7, sp, #0
 800076a:	6078      	str	r0, [r7, #4]
	if(timer_led_count > 0){
 800076c:	4b11      	ldr	r3, [pc, #68]	; (80007b4 <HAL_TIM_PeriodElapsedCallback+0x50>)
 800076e:	681b      	ldr	r3, [r3, #0]
 8000770:	2b00      	cmp	r3, #0
 8000772:	dd1b      	ble.n	80007ac <HAL_TIM_PeriodElapsedCallback+0x48>
		timer_led_count --;	//decrease by 1 every 10ms (once timer interrupt)
 8000774:	4b0f      	ldr	r3, [pc, #60]	; (80007b4 <HAL_TIM_PeriodElapsedCallback+0x50>)
 8000776:	681b      	ldr	r3, [r3, #0]
 8000778:	3b01      	subs	r3, #1
 800077a:	4a0e      	ldr	r2, [pc, #56]	; (80007b4 <HAL_TIM_PeriodElapsedCallback+0x50>)
 800077c:	6013      	str	r3, [r2, #0]
		if(timer_led_count <= 0){//condition to update variable "index_led"
 800077e:	4b0d      	ldr	r3, [pc, #52]	; (80007b4 <HAL_TIM_PeriodElapsedCallback+0x50>)
 8000780:	681b      	ldr	r3, [r3, #0]
 8000782:	2b00      	cmp	r3, #0
 8000784:	dc12      	bgt.n	80007ac <HAL_TIM_PeriodElapsedCallback+0x48>
			timer_led_count = 50;	//timer_led_count with 50 (500ms)
 8000786:	4b0b      	ldr	r3, [pc, #44]	; (80007b4 <HAL_TIM_PeriodElapsedCallback+0x50>)
 8000788:	2232      	movs	r2, #50	; 0x32
 800078a:	601a      	str	r2, [r3, #0]
									//therefore, "index_led" will switch every 500ms
			update7SEG(index_led);
 800078c:	4b0a      	ldr	r3, [pc, #40]	; (80007b8 <HAL_TIM_PeriodElapsedCallback+0x54>)
 800078e:	681b      	ldr	r3, [r3, #0]
 8000790:	4618      	mov	r0, r3
 8000792:	f7ff fe6b 	bl	800046c <update7SEG>
			index_led = (index_led + 1) % MAX_LED;	//update "index_led"
 8000796:	4b08      	ldr	r3, [pc, #32]	; (80007b8 <HAL_TIM_PeriodElapsedCallback+0x54>)
 8000798:	681b      	ldr	r3, [r3, #0]
 800079a:	3301      	adds	r3, #1
 800079c:	2204      	movs	r2, #4
 800079e:	fb93 f1f2 	sdiv	r1, r3, r2
 80007a2:	fb02 f201 	mul.w	r2, r2, r1
 80007a6:	1a9b      	subs	r3, r3, r2
 80007a8:	4a03      	ldr	r2, [pc, #12]	; (80007b8 <HAL_TIM_PeriodElapsedCallback+0x54>)
 80007aa:	6013      	str	r3, [r2, #0]
		}
	}
}
 80007ac:	bf00      	nop
 80007ae:	3708      	adds	r7, #8
 80007b0:	46bd      	mov	sp, r7
 80007b2:	bd80      	pop	{r7, pc}
 80007b4:	20000010 	.word	0x20000010
 80007b8:	2000003c 	.word	0x2000003c

080007bc <Error_Handler>:
/**
  * @brief  This function is executed in case of error occurrence.
  * @retval None
  */
void Error_Handler(void)
{
 80007bc:	b480      	push	{r7}
 80007be:	af00      	add	r7, sp, #0
  \details Disables IRQ interrupts by setting the I-bit in the CPSR.
           Can only be executed in Privileged modes.
 */
__STATIC_FORCEINLINE void __disable_irq(void)
{
  __ASM volatile ("cpsid i" : : : "memory");
 80007c0:	b672      	cpsid	i
}
 80007c2:	bf00      	nop
  /* USER CODE BEGIN Error_Handler_Debug */
  /* User can add his own implementation to report the HAL error return state */
  __disable_irq();
  while (1)
 80007c4:	e7fe      	b.n	80007c4 <Error_Handler+0x8>
	...

080007c8 <setTimer1>:
 80007c8:	b480      	push	{r7}
 80007ca:	b083      	sub	sp, #12
 80007cc:	af00      	add	r7, sp, #0
 80007ce:	6078      	str	r0, [r7, #4]
 80007d0:	4a05      	ldr	r2, [pc, #20]	; (80007e8 <setTimer1+0x20>)
 80007d2:	687b      	ldr	r3, [r7, #4]
 80007d4:	6013      	str	r3, [r2, #0]
 80007d6:	4b05      	ldr	r3, [pc, #20]	; (80007ec <setTimer1+0x24>)
 80007d8:	2200      	movs	r2, #0
 80007da:	601a      	str	r2, [r3, #0]
 80007dc:	bf00      	nop
 80007de:	370c      	adds	r7, #12
 80007e0:	46bd      	mov	sp, r7
 80007e2:	bc80      	pop	{r7}
 80007e4:	4770      	bx	lr
 80007e6:	bf00      	nop
 80007e8:	20000090 	.word	0x20000090
 80007ec:	20000088 	.word	0x20000088

080007f0 <HAL_MspInit>:
 80007f0:	b480      	push	{r7}
 80007f2:	b085      	sub	sp, #20
 80007f4:	af00      	add	r7, sp, #0
 80007f6:	4b15      	ldr	r3, [pc, #84]	; (800084c <HAL_MspInit+0x5c>)
 80007f8:	699b      	ldr	r3, [r3, #24]
 80007fa:	4a14      	ldr	r2, [pc, #80]	; (800084c <HAL_MspInit+0x5c>)
 80007fc:	f043 0301 	orr.w	r3, r3, #1
 8000800:	6193      	str	r3, [r2, #24]
 8000802:	4b12      	ldr	r3, [pc, #72]	; (800084c <HAL_MspInit+0x5c>)
 8000804:	699b      	ldr	r3, [r3, #24]
 8000806:	f003 0301 	and.w	r3, r3, #1
 800080a:	60bb      	str	r3, [r7, #8]
 800080c:	68bb      	ldr	r3, [r7, #8]
 800080e:	4b0f      	ldr	r3, [pc, #60]	; (800084c <HAL_MspInit+0x5c>)
 8000810:	69db      	ldr	r3, [r3, #28]
 8000812:	4a0e      	ldr	r2, [pc, #56]	; (800084c <HAL_MspInit+0x5c>)
 8000814:	f043 5380 	orr.w	r3, r3, #268435456	; 0x10000000
 8000818:	61d3      	str	r3, [r2, #28]
 800081a:	4b0c      	ldr	r3, [pc, #48]	; (800084c <HAL_MspInit+0x5c>)
 800081c:	69db      	ldr	r3, [r3, #28]
 800081e:	f003 5380 	and.w	r3, r3, #268435456	; 0x10000000
 8000822:	607b      	str	r3, [r7, #4]
 8000824:	687b      	ldr	r3, [r7, #4]
 8000826:	4b0a      	ldr	r3, [pc, #40]	; (8000850 <HAL_MspInit+0x60>)
 8000828:	685b      	ldr	r3, [r3, #4]
 800082a:	60fb      	str	r3, [r7, #12]
 800082c:	68fb      	ldr	r3, [r7, #12]
 800082e:	f023 63e0 	bic.w	r3, r3, #117440512	; 0x7000000
 8000832:	60fb      	str	r3, [r7, #12]
 8000834:	68fb      	ldr	r3, [r7, #12]
 8000836:	f043 6380 	orr.w	r3, r3, #67108864	; 0x4000000
 800083a:	60fb      	str	r3, [r7, #12]
 800083c:	4a04      	ldr	r2, [pc, #16]	; (8000850 <HAL_MspInit+0x60>)
 800083e:	68fb      	ldr	r3, [r7, #12]
 8000840:	6053      	str	r3, [r2, #4]
 8000842:	bf00      	nop
 8000844:	3714      	adds	r7, #20
 8000846:	46bd      	mov	sp, r7
 8000848:	bc80      	pop	{r7}
 800084a:	4770      	bx	lr
 800084c:	40021000 	.word	0x40021000
 8000850:	40010000 	.word	0x40010000

08000854 <HAL_TIM_Base_MspInit>:
 8000854:	b580      	push	{r7, lr}
 8000856:	b084      	sub	sp, #16
 8000858:	af00      	add	r7, sp, #0
 800085a:	6078      	str	r0, [r7, #4]
 800085c:	687b      	ldr	r3, [r7, #4]
 800085e:	681b      	ldr	r3, [r3, #0]
 8000860:	f1b3 4f80 	cmp.w	r3, #1073741824	; 0x40000000
 8000864:	d113      	bne.n	800088e <HAL_TIM_Base_MspInit+0x3a>
 8000866:	4b0c      	ldr	r3, [pc, #48]	; (8000898 <HAL_TIM_Base_MspInit+0x44>)
 8000868:	69db      	ldr	r3, [r3, #28]
 800086a:	4a0b      	ldr	r2, [pc, #44]	; (8000898 <HAL_TIM_Base_MspInit+0x44>)
 800086c:	f043 0301 	orr.w	r3, r3, #1
 8000870:	61d3      	str	r3, [r2, #28]
 8000872:	4b09      	ldr	r3, [pc, #36]	; (8000898 <HAL_TIM_Base_MspInit+0x44>)
 8000874:	69db      	ldr	r3, [r3, #28]
 8000876:	f003 0301 	and.w	r3, r3, #1
 800087a:	60fb      	str	r3, [r7, #12]
 800087c:	68fb      	ldr	r3, [r7, #12]
 800087e:	2200      	movs	r2, #0
 8000880:	2100      	movs	r1, #0
 8000882:	201c      	movs	r0, #28
 8000884:	f000 f9a1 	bl	8000bca <HAL_NVIC_SetPriority>
 8000888:	201c      	movs	r0, #28
 800088a:	f000 f9ba 	bl	8000c02 <HAL_NVIC_EnableIRQ>
 800088e:	bf00      	nop
 8000890:	3710      	adds	r7, #16
 8000892:	46bd      	mov	sp, r7
 8000894:	bd80      	pop	{r7, pc}
 8000896:	bf00      	nop
 8000898:	40021000 	.word	0x40021000

0800089c <NMI_Handler>:
 800089c:	b480      	push	{r7}
 800089e:	af00      	add	r7, sp, #0
 80008a0:	e7fe      	b.n	80008a0 <NMI_Handler+0x4>

080008a2 <HardFault_Handler>:
 80008a2:	b480      	push	{r7}
 80008a4:	af00      	add	r7, sp, #0
 80008a6:	e7fe      	b.n	80008a6 <HardFault_Handler+0x4>

080008a8 <MemManage_Handler>:
 80008a8:	b480      	push	{r7}
 80008aa:	af00      	add	r7, sp, #0
 80008ac:	e7fe      	b.n	80008ac <MemManage_Handler+0x4>

080008ae <BusFault_Handler>:
 80008ae:	b480      	push	{r7}
 80008b0:	af00      	add	r7, sp, #0
 80008b2:	e7fe      	b.n	80008b2 <BusFault_Handler+0x4>

080008b4 <UsageFault_Handler>:
 80008b4:	b480      	push	{r7}
 80008b6:	af00      	add	r7, sp, #0
 80008b8:	e7fe      	b.n	80008b8 <UsageFault_Handler+0x4>

080008ba <SVC_Handler>:
 80008ba:	b480      	push	{r7}
 80008bc:	af00      	add	r7, sp, #0
 80008be:	bf00      	nop
 80008c0:	46bd      	mov	sp, r7
 80008c2:	bc80      	pop	{r7}
 80008c4:	4770      	bx	lr

080008c6 <DebugMon_Handler>:
 80008c6:	b480      	push	{r7}
 80008c8:	af00      	add	r7, sp, #0
 80008ca:	bf00      	nop
 80008cc:	46bd      	mov	sp, r7
 80008ce:	bc80      	pop	{r7}
 80008d0:	4770      	bx	lr

080008d2 <PendSV_Handler>:
 80008d2:	b480      	push	{r7}
 80008d4:	af00      	add	r7, sp, #0
 80008d6:	bf00      	nop
 80008d8:	46bd      	mov	sp, r7
 80008da:	bc80      	pop	{r7}
 80008dc:	4770      	bx	lr

080008de <SysTick_Handler>:
 80008de:	b580      	push	{r7, lr}
 80008e0:	af00      	add	r7, sp, #0
 80008e2:	f000 f87f 	bl	80009e4 <HAL_IncTick>
 80008e6:	bf00      	nop
 80008e8:	bd80      	pop	{r7, pc}
	...

080008ec <TIM2_IRQHandler>:
 80008ec:	b580      	push	{r7, lr}
 80008ee:	af00      	add	r7, sp, #0
 80008f0:	4802      	ldr	r0, [pc, #8]	; (80008fc <TIM2_IRQHandler+0x10>)
 80008f2:	f000 ffab 	bl	800184c <HAL_TIM_IRQHandler>
 80008f6:	bf00      	nop
 80008f8:	bd80      	pop	{r7, pc}
 80008fa:	bf00      	nop
 80008fc:	20000040 	.word	0x20000040

08000900 <SystemInit>:
 8000900:	b480      	push	{r7}
 8000902:	af00      	add	r7, sp, #0
 8000904:	bf00      	nop
 8000906:	46bd      	mov	sp, r7
 8000908:	bc80      	pop	{r7}
 800090a:	4770      	bx	lr

0800090c <Reset_Handler>:
 800090c:	f7ff fff8 	bl	8000900 <SystemInit>
 8000910:	480b      	ldr	r0, [pc, #44]	; (8000940 <LoopFillZerobss+0xe>)
 8000912:	490c      	ldr	r1, [pc, #48]	; (8000944 <LoopFillZerobss+0x12>)
 8000914:	4a0c      	ldr	r2, [pc, #48]	; (8000948 <LoopFillZerobss+0x16>)
 8000916:	2300      	movs	r3, #0
 8000918:	e002      	b.n	8000920 <LoopCopyDataInit>

0800091a <CopyDataInit>:
 800091a:	58d4      	ldr	r4, [r2, r3]
 800091c:	50c4      	str	r4, [r0, r3]
 800091e:	3304      	adds	r3, #4

08000920 <LoopCopyDataInit>:
 8000920:	18c4      	adds	r4, r0, r3
 8000922:	428c      	cmp	r4, r1
 8000924:	d3f9      	bcc.n	800091a <CopyDataInit>
 8000926:	4a09      	ldr	r2, [pc, #36]	; (800094c <LoopFillZerobss+0x1a>)
 8000928:	4c09      	ldr	r4, [pc, #36]	; (8000950 <LoopFillZerobss+0x1e>)
 800092a:	2300      	movs	r3, #0
 800092c:	e001      	b.n	8000932 <LoopFillZerobss>

0800092e <FillZerobss>:
 800092e:	6013      	str	r3, [r2, #0]
 8000930:	3204      	adds	r2, #4

08000932 <LoopFillZerobss>:
 8000932:	42a2      	cmp	r2, r4
 8000934:	d3fb      	bcc.n	800092e <FillZerobss>
 8000936:	f001 fad5 	bl	8001ee4 <__libc_init_array>
 800093a:	f7ff fe23 	bl	8000584 <main>
 800093e:	4770      	bx	lr
 8000940:	20000000 	.word	0x20000000
 8000944:	20000020 	.word	0x20000020
 8000948:	08001f80 	.word	0x08001f80
 800094c:	20000020 	.word	0x20000020
 8000950:	2000009c 	.word	0x2000009c

08000954 <ADC1_2_IRQHandler>:
 8000954:	e7fe      	b.n	8000954 <ADC1_2_IRQHandler>
	...

08000958 <HAL_Init>:
 8000958:	b580      	push	{r7, lr}
 800095a:	af00      	add	r7, sp, #0
 800095c:	4b08      	ldr	r3, [pc, #32]	; (8000980 <HAL_Init+0x28>)
 800095e:	681b      	ldr	r3, [r3, #0]
 8000960:	4a07      	ldr	r2, [pc, #28]	; (8000980 <HAL_Init+0x28>)
 8000962:	f043 0310 	orr.w	r3, r3, #16
 8000966:	6013      	str	r3, [r2, #0]
 8000968:	2003      	movs	r0, #3
 800096a:	f000 f923 	bl	8000bb4 <HAL_NVIC_SetPriorityGrouping>
 800096e:	200f      	movs	r0, #15
 8000970:	f000 f808 	bl	8000984 <HAL_InitTick>
 8000974:	f7ff ff3c 	bl	80007f0 <HAL_MspInit>
 8000978:	2300      	movs	r3, #0
 800097a:	4618      	mov	r0, r3
 800097c:	bd80      	pop	{r7, pc}
 800097e:	bf00      	nop
 8000980:	40022000 	.word	0x40022000

08000984 <HAL_InitTick>:
 8000984:	b580      	push	{r7, lr}
 8000986:	b082      	sub	sp, #8
 8000988:	af00      	add	r7, sp, #0
 800098a:	6078      	str	r0, [r7, #4]
 800098c:	4b12      	ldr	r3, [pc, #72]	; (80009d8 <HAL_InitTick+0x54>)
 800098e:	681a      	ldr	r2, [r3, #0]
 8000990:	4b12      	ldr	r3, [pc, #72]	; (80009dc <HAL_InitTick+0x58>)
 8000992:	781b      	ldrb	r3, [r3, #0]
 8000994:	4619      	mov	r1, r3
 8000996:	f44f 737a 	mov.w	r3, #1000	; 0x3e8
 800099a:	fbb3 f3f1 	udiv	r3, r3, r1
 800099e:	fbb2 f3f3 	udiv	r3, r2, r3
 80009a2:	4618      	mov	r0, r3
 80009a4:	f000 f93b 	bl	8000c1e <HAL_SYSTICK_Config>
 80009a8:	4603      	mov	r3, r0
 80009aa:	2b00      	cmp	r3, #0
 80009ac:	d001      	beq.n	80009b2 <HAL_InitTick+0x2e>
 80009ae:	2301      	movs	r3, #1
 80009b0:	e00e      	b.n	80009d0 <HAL_InitTick+0x4c>
 80009b2:	687b      	ldr	r3, [r7, #4]
 80009b4:	2b0f      	cmp	r3, #15
 80009b6:	d80a      	bhi.n	80009ce <HAL_InitTick+0x4a>
 80009b8:	2200      	movs	r2, #0
 80009ba:	6879      	ldr	r1, [r7, #4]
 80009bc:	f04f 30ff 	mov.w	r0, #4294967295
 80009c0:	f000 f903 	bl	8000bca <HAL_NVIC_SetPriority>
 80009c4:	4a06      	ldr	r2, [pc, #24]	; (80009e0 <HAL_InitTick+0x5c>)
 80009c6:	687b      	ldr	r3, [r7, #4]
 80009c8:	6013      	str	r3, [r2, #0]
 80009ca:	2300      	movs	r3, #0
 80009cc:	e000      	b.n	80009d0 <HAL_InitTick+0x4c>
 80009ce:	2301      	movs	r3, #1
 80009d0:	4618      	mov	r0, r3
 80009d2:	3708      	adds	r7, #8
 80009d4:	46bd      	mov	sp, r7
 80009d6:	bd80      	pop	{r7, pc}
 80009d8:	20000014 	.word	0x20000014
 80009dc:	2000001c 	.word	0x2000001c
 80009e0:	20000018 	.word	0x20000018

080009e4 <HAL_IncTick>:
 80009e4:	b480      	push	{r7}
 80009e6:	af00      	add	r7, sp, #0
 80009e8:	4b05      	ldr	r3, [pc, #20]	; (8000a00 <HAL_IncTick+0x1c>)
 80009ea:	781b      	ldrb	r3, [r3, #0]
 80009ec:	461a      	mov	r2, r3
 80009ee:	4b05      	ldr	r3, [pc, #20]	; (8000a04 <HAL_IncTick+0x20>)
 80009f0:	681b      	ldr	r3, [r3, #0]
 80009f2:	4413      	add	r3, r2
 80009f4:	4a03      	ldr	r2, [pc, #12]	; (8000a04 <HAL_IncTick+0x20>)
 80009f6:	6013      	str	r3, [r2, #0]
 80009f8:	bf00      	nop
 80009fa:	46bd      	mov	sp, r7
 80009fc:	bc80      	pop	{r7}
 80009fe:	4770      	bx	lr
 8000a00:	2000001c 	.word	0x2000001c
 8000a04:	20000098 	.word	0x20000098

08000a08 <HAL_GetTick>:
 8000a08:	b480      	push	{r7}
 8000a0a:	af00      	add	r7, sp, #0
 8000a0c:	4b02      	ldr	r3, [pc, #8]	; (8000a18 <HAL_GetTick+0x10>)
 8000a0e:	681b      	ldr	r3, [r3, #0]
 8000a10:	4618      	mov	r0, r3
 8000a12:	46bd      	mov	sp, r7
 8000a14:	bc80      	pop	{r7}
 8000a16:	4770      	bx	lr
 8000a18:	20000098 	.word	0x20000098

08000a1c <__NVIC_SetPriorityGrouping>:
 8000a1c:	b480      	push	{r7}
 8000a1e:	b085      	sub	sp, #20
 8000a20:	af00      	add	r7, sp, #0
 8000a22:	6078      	str	r0, [r7, #4]
 8000a24:	687b      	ldr	r3, [r7, #4]
 8000a26:	f003 0307 	and.w	r3, r3, #7
 8000a2a:	60fb      	str	r3, [r7, #12]
 8000a2c:	4b0c      	ldr	r3, [pc, #48]	; (8000a60 <__NVIC_SetPriorityGrouping+0x44>)
 8000a2e:	68db      	ldr	r3, [r3, #12]
 8000a30:	60bb      	str	r3, [r7, #8]
 8000a32:	68ba      	ldr	r2, [r7, #8]
 8000a34:	f64f 03ff 	movw	r3, #63743	; 0xf8ff
 8000a38:	4013      	ands	r3, r2
 8000a3a:	60bb      	str	r3, [r7, #8]
 8000a3c:	68fb      	ldr	r3, [r7, #12]
 8000a3e:	021a      	lsls	r2, r3, #8
 8000a40:	68bb      	ldr	r3, [r7, #8]
 8000a42:	4313      	orrs	r3, r2
 8000a44:	f043 63bf 	orr.w	r3, r3, #100139008	; 0x5f80000
 8000a48:	f443 3300 	orr.w	r3, r3, #131072	; 0x20000
 8000a4c:	60bb      	str	r3, [r7, #8]
 8000a4e:	4a04      	ldr	r2, [pc, #16]	; (8000a60 <__NVIC_SetPriorityGrouping+0x44>)
 8000a50:	68bb      	ldr	r3, [r7, #8]
 8000a52:	60d3      	str	r3, [r2, #12]
 8000a54:	bf00      	nop
 8000a56:	3714      	adds	r7, #20
 8000a58:	46bd      	mov	sp, r7
 8000a5a:	bc80      	pop	{r7}
 8000a5c:	4770      	bx	lr
 8000a5e:	bf00      	nop
 8000a60:	e000ed00 	.word	0xe000ed00

08000a64 <__NVIC_GetPriorityGrouping>:
 8000a64:	b480      	push	{r7}
 8000a66:	af00      	add	r7, sp, #0
 8000a68:	4b04      	ldr	r3, [pc, #16]	; (8000a7c <__NVIC_GetPriorityGrouping+0x18>)
 8000a6a:	68db      	ldr	r3, [r3, #12]
 8000a6c:	0a1b      	lsrs	r3, r3, #8
 8000a6e:	f003 0307 	and.w	r3, r3, #7
 8000a72:	4618      	mov	r0, r3
 8000a74:	46bd      	mov	sp, r7
 8000a76:	bc80      	pop	{r7}
 8000a78:	4770      	bx	lr
 8000a7a:	bf00      	nop
 8000a7c:	e000ed00 	.word	0xe000ed00

08000a80 <__NVIC_EnableIRQ>:
 8000a80:	b480      	push	{r7}
 8000a82:	b083      	sub	sp, #12
 8000a84:	af00      	add	r7, sp, #0
 8000a86:	4603      	mov	r3, r0
 8000a88:	71fb      	strb	r3, [r7, #7]
 8000a8a:	f997 3007 	ldrsb.w	r3, [r7, #7]
 8000a8e:	2b00      	cmp	r3, #0
 8000a90:	db0b      	blt.n	8000aaa <__NVIC_EnableIRQ+0x2a>
 8000a92:	79fb      	ldrb	r3, [r7, #7]
 8000a94:	f003 021f 	and.w	r2, r3, #31
 8000a98:	4906      	ldr	r1, [pc, #24]	; (8000ab4 <__NVIC_EnableIRQ+0x34>)
 8000a9a:	f997 3007 	ldrsb.w	r3, [r7, #7]
 8000a9e:	095b      	lsrs	r3, r3, #5
 8000aa0:	2001      	movs	r0, #1
 8000aa2:	fa00 f202 	lsl.w	r2, r0, r2
 8000aa6:	f841 2023 	str.w	r2, [r1, r3, lsl #2]
 8000aaa:	bf00      	nop
 8000aac:	370c      	adds	r7, #12
 8000aae:	46bd      	mov	sp, r7
 8000ab0:	bc80      	pop	{r7}
 8000ab2:	4770      	bx	lr
 8000ab4:	e000e100 	.word	0xe000e100

08000ab8 <__NVIC_SetPriority>:
 8000ab8:	b480      	push	{r7}
 8000aba:	b083      	sub	sp, #12
 8000abc:	af00      	add	r7, sp, #0
 8000abe:	4603      	mov	r3, r0
 8000ac0:	6039      	str	r1, [r7, #0]
 8000ac2:	71fb      	strb	r3, [r7, #7]
 8000ac4:	f997 3007 	ldrsb.w	r3, [r7, #7]
 8000ac8:	2b00      	cmp	r3, #0
 8000aca:	db0a      	blt.n	8000ae2 <__NVIC_SetPriority+0x2a>
 8000acc:	683b      	ldr	r3, [r7, #0]
 8000ace:	b2da      	uxtb	r2, r3
 8000ad0:	490c      	ldr	r1, [pc, #48]	; (8000b04 <__NVIC_SetPriority+0x4c>)
 8000ad2:	f997 3007 	ldrsb.w	r3, [r7, #7]
 8000ad6:	0112      	lsls	r2, r2, #4
 8000ad8:	b2d2      	uxtb	r2, r2
 8000ada:	440b      	add	r3, r1
 8000adc:	f883 2300 	strb.w	r2, [r3, #768]	; 0x300
 8000ae0:	e00a      	b.n	8000af8 <__NVIC_SetPriority+0x40>
 8000ae2:	683b      	ldr	r3, [r7, #0]
 8000ae4:	b2da      	uxtb	r2, r3
 8000ae6:	4908      	ldr	r1, [pc, #32]	; (8000b08 <__NVIC_SetPriority+0x50>)
 8000ae8:	79fb      	ldrb	r3, [r7, #7]
 8000aea:	f003 030f 	and.w	r3, r3, #15
 8000aee:	3b04      	subs	r3, #4
 8000af0:	0112      	lsls	r2, r2, #4
 8000af2:	b2d2      	uxtb	r2, r2
 8000af4:	440b      	add	r3, r1
 8000af6:	761a      	strb	r2, [r3, #24]
 8000af8:	bf00      	nop
 8000afa:	370c      	adds	r7, #12
 8000afc:	46bd      	mov	sp, r7
 8000afe:	bc80      	pop	{r7}
 8000b00:	4770      	bx	lr
 8000b02:	bf00      	nop
 8000b04:	e000e100 	.word	0xe000e100
 8000b08:	e000ed00 	.word	0xe000ed00

08000b0c <NVIC_EncodePriority>:
 8000b0c:	b480      	push	{r7}
 8000b0e:	b089      	sub	sp, #36	; 0x24
 8000b10:	af00      	add	r7, sp, #0
 8000b12:	60f8      	str	r0, [r7, #12]
 8000b14:	60b9      	str	r1, [r7, #8]
 8000b16:	607a      	str	r2, [r7, #4]
 8000b18:	68fb      	ldr	r3, [r7, #12]
 8000b1a:	f003 0307 	and.w	r3, r3, #7
 8000b1e:	61fb      	str	r3, [r7, #28]
 8000b20:	69fb      	ldr	r3, [r7, #28]
 8000b22:	f1c3 0307 	rsb	r3, r3, #7
 8000b26:	2b04      	cmp	r3, #4
 8000b28:	bf28      	it	cs
 8000b2a:	2304      	movcs	r3, #4
 8000b2c:	61bb      	str	r3, [r7, #24]
 8000b2e:	69fb      	ldr	r3, [r7, #28]
 8000b30:	3304      	adds	r3, #4
 8000b32:	2b06      	cmp	r3, #6
 8000b34:	d902      	bls.n	8000b3c <NVIC_EncodePriority+0x30>
 8000b36:	69fb      	ldr	r3, [r7, #28]
 8000b38:	3b03      	subs	r3, #3
 8000b3a:	e000      	b.n	8000b3e <NVIC_EncodePriority+0x32>
 8000b3c:	2300      	movs	r3, #0
 8000b3e:	617b      	str	r3, [r7, #20]
 8000b40:	f04f 32ff 	mov.w	r2, #4294967295
 8000b44:	69bb      	ldr	r3, [r7, #24]
 8000b46:	fa02 f303 	lsl.w	r3, r2, r3
 8000b4a:	43da      	mvns	r2, r3
 8000b4c:	68bb      	ldr	r3, [r7, #8]
 8000b4e:	401a      	ands	r2, r3
 8000b50:	697b      	ldr	r3, [r7, #20]
 8000b52:	409a      	lsls	r2, r3
 8000b54:	f04f 31ff 	mov.w	r1, #4294967295
 8000b58:	697b      	ldr	r3, [r7, #20]
 8000b5a:	fa01 f303 	lsl.w	r3, r1, r3
 8000b5e:	43d9      	mvns	r1, r3
 8000b60:	687b      	ldr	r3, [r7, #4]
 8000b62:	400b      	ands	r3, r1
 8000b64:	4313      	orrs	r3, r2
 8000b66:	4618      	mov	r0, r3
 8000b68:	3724      	adds	r7, #36	; 0x24
 8000b6a:	46bd      	mov	sp, r7
 8000b6c:	bc80      	pop	{r7}
 8000b6e:	4770      	bx	lr

08000b70 <SysTick_Config>:
 8000b70:	b580      	push	{r7, lr}
 8000b72:	b082      	sub	sp, #8
 8000b74:	af00      	add	r7, sp, #0
 8000b76:	6078      	str	r0, [r7, #4]
 8000b78:	687b      	ldr	r3, [r7, #4]
 8000b7a:	3b01      	subs	r3, #1
 8000b7c:	f1b3 7f80 	cmp.w	r3, #16777216	; 0x1000000
 8000b80:	d301      	bcc.n	8000b86 <SysTick_Config+0x16>
 8000b82:	2301      	movs	r3, #1
 8000b84:	e00f      	b.n	8000ba6 <SysTick_Config+0x36>
 8000b86:	4a0a      	ldr	r2, [pc, #40]	; (8000bb0 <SysTick_Config+0x40>)
 8000b88:	687b      	ldr	r3, [r7, #4]
 8000b8a:	3b01      	subs	r3, #1
 8000b8c:	6053      	str	r3, [r2, #4]
 8000b8e:	210f      	movs	r1, #15
 8000b90:	f04f 30ff 	mov.w	r0, #4294967295
 8000b94:	f7ff ff90 	bl	8000ab8 <__NVIC_SetPriority>
 8000b98:	4b05      	ldr	r3, [pc, #20]	; (8000bb0 <SysTick_Config+0x40>)
 8000b9a:	2200      	movs	r2, #0
 8000b9c:	609a      	str	r2, [r3, #8]
 8000b9e:	4b04      	ldr	r3, [pc, #16]	; (8000bb0 <SysTick_Config+0x40>)
 8000ba0:	2207      	movs	r2, #7
 8000ba2:	601a      	str	r2, [r3, #0]
 8000ba4:	2300      	movs	r3, #0
 8000ba6:	4618      	mov	r0, r3
 8000ba8:	3708      	adds	r7, #8
 8000baa:	46bd      	mov	sp, r7
 8000bac:	bd80      	pop	{r7, pc}
 8000bae:	bf00      	nop
 8000bb0:	e000e010 	.word	0xe000e010

08000bb4 <HAL_NVIC_SetPriorityGrouping>:
 8000bb4:	b580      	push	{r7, lr}
 8000bb6:	b082      	sub	sp, #8
 8000bb8:	af00      	add	r7, sp, #0
 8000bba:	6078      	str	r0, [r7, #4]
 8000bbc:	6878      	ldr	r0, [r7, #4]
 8000bbe:	f7ff ff2d 	bl	8000a1c <__NVIC_SetPriorityGrouping>
 8000bc2:	bf00      	nop
 8000bc4:	3708      	adds	r7, #8
 8000bc6:	46bd      	mov	sp, r7
 8000bc8:	bd80      	pop	{r7, pc}

08000bca <HAL_NVIC_SetPriority>:
 8000bca:	b580      	push	{r7, lr}
 8000bcc:	b086      	sub	sp, #24
 8000bce:	af00      	add	r7, sp, #0
 8000bd0:	4603      	mov	r3, r0
 8000bd2:	60b9      	str	r1, [r7, #8]
 8000bd4:	607a      	str	r2, [r7, #4]
 8000bd6:	73fb      	strb	r3, [r7, #15]
 8000bd8:	2300      	movs	r3, #0
 8000bda:	617b      	str	r3, [r7, #20]
 8000bdc:	f7ff ff42 	bl	8000a64 <__NVIC_GetPriorityGrouping>
 8000be0:	6178      	str	r0, [r7, #20]
 8000be2:	687a      	ldr	r2, [r7, #4]
 8000be4:	68b9      	ldr	r1, [r7, #8]
 8000be6:	6978      	ldr	r0, [r7, #20]
 8000be8:	f7ff ff90 	bl	8000b0c <NVIC_EncodePriority>
 8000bec:	4602      	mov	r2, r0
 8000bee:	f997 300f 	ldrsb.w	r3, [r7, #15]
 8000bf2:	4611      	mov	r1, r2
 8000bf4:	4618      	mov	r0, r3
 8000bf6:	f7ff ff5f 	bl	8000ab8 <__NVIC_SetPriority>
 8000bfa:	bf00      	nop
 8000bfc:	3718      	adds	r7, #24
 8000bfe:	46bd      	mov	sp, r7
 8000c00:	bd80      	pop	{r7, pc}

08000c02 <HAL_NVIC_EnableIRQ>:
 8000c02:	b580      	push	{r7, lr}
 8000c04:	b082      	sub	sp, #8
 8000c06:	af00      	add	r7, sp, #0
 8000c08:	4603      	mov	r3, r0
 8000c0a:	71fb      	strb	r3, [r7, #7]
 8000c0c:	f997 3007 	ldrsb.w	r3, [r7, #7]
 8000c10:	4618      	mov	r0, r3
 8000c12:	f7ff ff35 	bl	8000a80 <__NVIC_EnableIRQ>
 8000c16:	bf00      	nop
 8000c18:	3708      	adds	r7, #8
 8000c1a:	46bd      	mov	sp, r7
 8000c1c:	bd80      	pop	{r7, pc}

08000c1e <HAL_SYSTICK_Config>:
 8000c1e:	b580      	push	{r7, lr}
 8000c20:	b082      	sub	sp, #8
 8000c22:	af00      	add	r7, sp, #0
 8000c24:	6078      	str	r0, [r7, #4]
 8000c26:	6878      	ldr	r0, [r7, #4]
 8000c28:	f7ff ffa2 	bl	8000b70 <SysTick_Config>
 8000c2c:	4603      	mov	r3, r0
 8000c2e:	4618      	mov	r0, r3
 8000c30:	3708      	adds	r7, #8
 8000c32:	46bd      	mov	sp, r7
 8000c34:	bd80      	pop	{r7, pc}
	...

08000c38 <HAL_GPIO_Init>:
 8000c38:	b480      	push	{r7}
 8000c3a:	b08b      	sub	sp, #44	; 0x2c
 8000c3c:	af00      	add	r7, sp, #0
 8000c3e:	6078      	str	r0, [r7, #4]
 8000c40:	6039      	str	r1, [r7, #0]
 8000c42:	2300      	movs	r3, #0
 8000c44:	627b      	str	r3, [r7, #36]	; 0x24
 8000c46:	2300      	movs	r3, #0
 8000c48:	623b      	str	r3, [r7, #32]
 8000c4a:	e148      	b.n	8000ede <HAL_GPIO_Init+0x2a6>
 8000c4c:	2201      	movs	r2, #1
 8000c4e:	6a7b      	ldr	r3, [r7, #36]	; 0x24
 8000c50:	fa02 f303 	lsl.w	r3, r2, r3
 8000c54:	61fb      	str	r3, [r7, #28]
 8000c56:	683b      	ldr	r3, [r7, #0]
 8000c58:	681b      	ldr	r3, [r3, #0]
 8000c5a:	69fa      	ldr	r2, [r7, #28]
 8000c5c:	4013      	ands	r3, r2
 8000c5e:	61bb      	str	r3, [r7, #24]
 8000c60:	69ba      	ldr	r2, [r7, #24]
 8000c62:	69fb      	ldr	r3, [r7, #28]
 8000c64:	429a      	cmp	r2, r3
 8000c66:	f040 8137 	bne.w	8000ed8 <HAL_GPIO_Init+0x2a0>
 8000c6a:	683b      	ldr	r3, [r7, #0]
 8000c6c:	685b      	ldr	r3, [r3, #4]
 8000c6e:	4aa3      	ldr	r2, [pc, #652]	; (8000efc <HAL_GPIO_Init+0x2c4>)
 8000c70:	4293      	cmp	r3, r2
 8000c72:	d05e      	beq.n	8000d32 <HAL_GPIO_Init+0xfa>
 8000c74:	4aa1      	ldr	r2, [pc, #644]	; (8000efc <HAL_GPIO_Init+0x2c4>)
 8000c76:	4293      	cmp	r3, r2
 8000c78:	d875      	bhi.n	8000d66 <HAL_GPIO_Init+0x12e>
 8000c7a:	4aa1      	ldr	r2, [pc, #644]	; (8000f00 <HAL_GPIO_Init+0x2c8>)
 8000c7c:	4293      	cmp	r3, r2
 8000c7e:	d058      	beq.n	8000d32 <HAL_GPIO_Init+0xfa>
 8000c80:	4a9f      	ldr	r2, [pc, #636]	; (8000f00 <HAL_GPIO_Init+0x2c8>)
 8000c82:	4293      	cmp	r3, r2
 8000c84:	d86f      	bhi.n	8000d66 <HAL_GPIO_Init+0x12e>
 8000c86:	4a9f      	ldr	r2, [pc, #636]	; (8000f04 <HAL_GPIO_Init+0x2cc>)
 8000c88:	4293      	cmp	r3, r2
 8000c8a:	d052      	beq.n	8000d32 <HAL_GPIO_Init+0xfa>
 8000c8c:	4a9d      	ldr	r2, [pc, #628]	; (8000f04 <HAL_GPIO_Init+0x2cc>)
 8000c8e:	4293      	cmp	r3, r2
 8000c90:	d869      	bhi.n	8000d66 <HAL_GPIO_Init+0x12e>
 8000c92:	4a9d      	ldr	r2, [pc, #628]	; (8000f08 <HAL_GPIO_Init+0x2d0>)
 8000c94:	4293      	cmp	r3, r2
 8000c96:	d04c      	beq.n	8000d32 <HAL_GPIO_Init+0xfa>
 8000c98:	4a9b      	ldr	r2, [pc, #620]	; (8000f08 <HAL_GPIO_Init+0x2d0>)
 8000c9a:	4293      	cmp	r3, r2
 8000c9c:	d863      	bhi.n	8000d66 <HAL_GPIO_Init+0x12e>
 8000c9e:	4a9b      	ldr	r2, [pc, #620]	; (8000f0c <HAL_GPIO_Init+0x2d4>)
 8000ca0:	4293      	cmp	r3, r2
 8000ca2:	d046      	beq.n	8000d32 <HAL_GPIO_Init+0xfa>
 8000ca4:	4a99      	ldr	r2, [pc, #612]	; (8000f0c <HAL_GPIO_Init+0x2d4>)
 8000ca6:	4293      	cmp	r3, r2
 8000ca8:	d85d      	bhi.n	8000d66 <HAL_GPIO_Init+0x12e>
 8000caa:	2b12      	cmp	r3, #18
 8000cac:	d82a      	bhi.n	8000d04 <HAL_GPIO_Init+0xcc>
 8000cae:	2b12      	cmp	r3, #18
 8000cb0:	d859      	bhi.n	8000d66 <HAL_GPIO_Init+0x12e>
 8000cb2:	a201      	add	r2, pc, #4	; (adr r2, 8000cb8 <HAL_GPIO_Init+0x80>)
 8000cb4:	f852 f023 	ldr.w	pc, [r2, r3, lsl #2]
 8000cb8:	08000d33 	.word	0x08000d33
 8000cbc:	08000d0d 	.word	0x08000d0d
 8000cc0:	08000d1f 	.word	0x08000d1f
 8000cc4:	08000d61 	.word	0x08000d61
 8000cc8:	08000d67 	.word	0x08000d67
 8000ccc:	08000d67 	.word	0x08000d67
 8000cd0:	08000d67 	.word	0x08000d67
 8000cd4:	08000d67 	.word	0x08000d67
 8000cd8:	08000d67 	.word	0x08000d67
 8000cdc:	08000d67 	.word	0x08000d67
 8000ce0:	08000d67 	.word	0x08000d67
 8000ce4:	08000d67 	.word	0x08000d67
 8000ce8:	08000d67 	.word	0x08000d67
 8000cec:	08000d67 	.word	0x08000d67
 8000cf0:	08000d67 	.word	0x08000d67
 8000cf4:	08000d67 	.word	0x08000d67
 8000cf8:	08000d67 	.word	0x08000d67
 8000cfc:	08000d15 	.word	0x08000d15
 8000d00:	08000d29 	.word	0x08000d29
 8000d04:	4a82      	ldr	r2, [pc, #520]	; (8000f10 <HAL_GPIO_Init+0x2d8>)
 8000d06:	4293      	cmp	r3, r2
 8000d08:	d013      	beq.n	8000d32 <HAL_GPIO_Init+0xfa>
 8000d0a:	e02c      	b.n	8000d66 <HAL_GPIO_Init+0x12e>
 8000d0c:	683b      	ldr	r3, [r7, #0]
 8000d0e:	68db      	ldr	r3, [r3, #12]
 8000d10:	623b      	str	r3, [r7, #32]
 8000d12:	e029      	b.n	8000d68 <HAL_GPIO_Init+0x130>
 8000d14:	683b      	ldr	r3, [r7, #0]
 8000d16:	68db      	ldr	r3, [r3, #12]
 8000d18:	3304      	adds	r3, #4
 8000d1a:	623b      	str	r3, [r7, #32]
 8000d1c:	e024      	b.n	8000d68 <HAL_GPIO_Init+0x130>
 8000d1e:	683b      	ldr	r3, [r7, #0]
 8000d20:	68db      	ldr	r3, [r3, #12]
 8000d22:	3308      	adds	r3, #8
 8000d24:	623b      	str	r3, [r7, #32]
 8000d26:	e01f      	b.n	8000d68 <HAL_GPIO_Init+0x130>
 8000d28:	683b      	ldr	r3, [r7, #0]
 8000d2a:	68db      	ldr	r3, [r3, #12]
 8000d2c:	330c      	adds	r3, #12
 8000d2e:	623b      	str	r3, [r7, #32]
 8000d30:	e01a      	b.n	8000d68 <HAL_GPIO_Init+0x130>
 8000d32:	683b      	ldr	r3, [r7, #0]
 8000d34:	689b      	ldr	r3, [r3, #8]
 8000d36:	2b00      	cmp	r3, #0
 8000d38:	d102      	bne.n	8000d40 <HAL_GPIO_Init+0x108>
 8000d3a:	2304      	movs	r3, #4
 8000d3c:	623b      	str	r3, [r7, #32]
 8000d3e:	e013      	b.n	8000d68 <HAL_GPIO_Init+0x130>
 8000d40:	683b      	ldr	r3, [r7, #0]
 8000d42:	689b      	ldr	r3, [r3, #8]
 8000d44:	2b01      	cmp	r3, #1
 8000d46:	d105      	bne.n	8000d54 <HAL_GPIO_Init+0x11c>
 8000d48:	2308      	movs	r3, #8
 8000d4a:	623b      	str	r3, [r7, #32]
 8000d4c:	687b      	ldr	r3, [r7, #4]
 8000d4e:	69fa      	ldr	r2, [r7, #28]
 8000d50:	611a      	str	r2, [r3, #16]
 8000d52:	e009      	b.n	8000d68 <HAL_GPIO_Init+0x130>
 8000d54:	2308      	movs	r3, #8
 8000d56:	623b      	str	r3, [r7, #32]
 8000d58:	687b      	ldr	r3, [r7, #4]
 8000d5a:	69fa      	ldr	r2, [r7, #28]
 8000d5c:	615a      	str	r2, [r3, #20]
 8000d5e:	e003      	b.n	8000d68 <HAL_GPIO_Init+0x130>
 8000d60:	2300      	movs	r3, #0
 8000d62:	623b      	str	r3, [r7, #32]
 8000d64:	e000      	b.n	8000d68 <HAL_GPIO_Init+0x130>
 8000d66:	bf00      	nop
 8000d68:	69bb      	ldr	r3, [r7, #24]
 8000d6a:	2bff      	cmp	r3, #255	; 0xff
 8000d6c:	d801      	bhi.n	8000d72 <HAL_GPIO_Init+0x13a>
 8000d6e:	687b      	ldr	r3, [r7, #4]
 8000d70:	e001      	b.n	8000d76 <HAL_GPIO_Init+0x13e>
 8000d72:	687b      	ldr	r3, [r7, #4]
 8000d74:	3304      	adds	r3, #4
 8000d76:	617b      	str	r3, [r7, #20]
 8000d78:	69bb      	ldr	r3, [r7, #24]
 8000d7a:	2bff      	cmp	r3, #255	; 0xff
 8000d7c:	d802      	bhi.n	8000d84 <HAL_GPIO_Init+0x14c>
 8000d7e:	6a7b      	ldr	r3, [r7, #36]	; 0x24
 8000d80:	009b      	lsls	r3, r3, #2
 8000d82:	e002      	b.n	8000d8a <HAL_GPIO_Init+0x152>
 8000d84:	6a7b      	ldr	r3, [r7, #36]	; 0x24
 8000d86:	3b08      	subs	r3, #8
 8000d88:	009b      	lsls	r3, r3, #2
 8000d8a:	613b      	str	r3, [r7, #16]
 8000d8c:	697b      	ldr	r3, [r7, #20]
 8000d8e:	681a      	ldr	r2, [r3, #0]
 8000d90:	210f      	movs	r1, #15
 8000d92:	693b      	ldr	r3, [r7, #16]
 8000d94:	fa01 f303 	lsl.w	r3, r1, r3
 8000d98:	43db      	mvns	r3, r3
 8000d9a:	401a      	ands	r2, r3
 8000d9c:	6a39      	ldr	r1, [r7, #32]
 8000d9e:	693b      	ldr	r3, [r7, #16]
 8000da0:	fa01 f303 	lsl.w	r3, r1, r3
 8000da4:	431a      	orrs	r2, r3
 8000da6:	697b      	ldr	r3, [r7, #20]
 8000da8:	601a      	str	r2, [r3, #0]
 8000daa:	683b      	ldr	r3, [r7, #0]
 8000dac:	685b      	ldr	r3, [r3, #4]
 8000dae:	f003 5380 	and.w	r3, r3, #268435456	; 0x10000000
 8000db2:	2b00      	cmp	r3, #0
 8000db4:	f000 8090 	beq.w	8000ed8 <HAL_GPIO_Init+0x2a0>
 8000db8:	4b56      	ldr	r3, [pc, #344]	; (8000f14 <HAL_GPIO_Init+0x2dc>)
 8000dba:	699b      	ldr	r3, [r3, #24]
 8000dbc:	4a55      	ldr	r2, [pc, #340]	; (8000f14 <HAL_GPIO_Init+0x2dc>)
 8000dbe:	f043 0301 	orr.w	r3, r3, #1
 8000dc2:	6193      	str	r3, [r2, #24]
 8000dc4:	4b53      	ldr	r3, [pc, #332]	; (8000f14 <HAL_GPIO_Init+0x2dc>)
 8000dc6:	699b      	ldr	r3, [r3, #24]
 8000dc8:	f003 0301 	and.w	r3, r3, #1
 8000dcc:	60bb      	str	r3, [r7, #8]
 8000dce:	68bb      	ldr	r3, [r7, #8]
 8000dd0:	4a51      	ldr	r2, [pc, #324]	; (8000f18 <HAL_GPIO_Init+0x2e0>)
 8000dd2:	6a7b      	ldr	r3, [r7, #36]	; 0x24
 8000dd4:	089b      	lsrs	r3, r3, #2
 8000dd6:	3302      	adds	r3, #2
 8000dd8:	f852 3023 	ldr.w	r3, [r2, r3, lsl #2]
 8000ddc:	60fb      	str	r3, [r7, #12]
 8000dde:	6a7b      	ldr	r3, [r7, #36]	; 0x24
 8000de0:	f003 0303 	and.w	r3, r3, #3
 8000de4:	009b      	lsls	r3, r3, #2
 8000de6:	220f      	movs	r2, #15
 8000de8:	fa02 f303 	lsl.w	r3, r2, r3
 8000dec:	43db      	mvns	r3, r3
 8000dee:	68fa      	ldr	r2, [r7, #12]
 8000df0:	4013      	ands	r3, r2
 8000df2:	60fb      	str	r3, [r7, #12]
 8000df4:	687b      	ldr	r3, [r7, #4]
 8000df6:	4a49      	ldr	r2, [pc, #292]	; (8000f1c <HAL_GPIO_Init+0x2e4>)
 8000df8:	4293      	cmp	r3, r2
 8000dfa:	d00d      	beq.n	8000e18 <HAL_GPIO_Init+0x1e0>
 8000dfc:	687b      	ldr	r3, [r7, #4]
 8000dfe:	4a48      	ldr	r2, [pc, #288]	; (8000f20 <HAL_GPIO_Init+0x2e8>)
 8000e00:	4293      	cmp	r3, r2
 8000e02:	d007      	beq.n	8000e14 <HAL_GPIO_Init+0x1dc>
 8000e04:	687b      	ldr	r3, [r7, #4]
 8000e06:	4a47      	ldr	r2, [pc, #284]	; (8000f24 <HAL_GPIO_Init+0x2ec>)
 8000e08:	4293      	cmp	r3, r2
 8000e0a:	d101      	bne.n	8000e10 <HAL_GPIO_Init+0x1d8>
 8000e0c:	2302      	movs	r3, #2
 8000e0e:	e004      	b.n	8000e1a <HAL_GPIO_Init+0x1e2>
 8000e10:	2303      	movs	r3, #3
 8000e12:	e002      	b.n	8000e1a <HAL_GPIO_Init+0x1e2>
 8000e14:	2301      	movs	r3, #1
 8000e16:	e000      	b.n	8000e1a <HAL_GPIO_Init+0x1e2>
 8000e18:	2300      	movs	r3, #0
 8000e1a:	6a7a      	ldr	r2, [r7, #36]	; 0x24
 8000e1c:	f002 0203 	and.w	r2, r2, #3
 8000e20:	0092      	lsls	r2, r2, #2
 8000e22:	4093      	lsls	r3, r2
 8000e24:	68fa      	ldr	r2, [r7, #12]
 8000e26:	4313      	orrs	r3, r2
 8000e28:	60fb      	str	r3, [r7, #12]
 8000e2a:	493b      	ldr	r1, [pc, #236]	; (8000f18 <HAL_GPIO_Init+0x2e0>)
 8000e2c:	6a7b      	ldr	r3, [r7, #36]	; 0x24
 8000e2e:	089b      	lsrs	r3, r3, #2
 8000e30:	3302      	adds	r3, #2
 8000e32:	68fa      	ldr	r2, [r7, #12]
 8000e34:	f841 2023 	str.w	r2, [r1, r3, lsl #2]
 8000e38:	683b      	ldr	r3, [r7, #0]
 8000e3a:	685b      	ldr	r3, [r3, #4]
 8000e3c:	f403 1380 	and.w	r3, r3, #1048576	; 0x100000
 8000e40:	2b00      	cmp	r3, #0
 8000e42:	d006      	beq.n	8000e52 <HAL_GPIO_Init+0x21a>
 8000e44:	4b38      	ldr	r3, [pc, #224]	; (8000f28 <HAL_GPIO_Init+0x2f0>)
 8000e46:	689a      	ldr	r2, [r3, #8]
 8000e48:	4937      	ldr	r1, [pc, #220]	; (8000f28 <HAL_GPIO_Init+0x2f0>)
 8000e4a:	69bb      	ldr	r3, [r7, #24]
 8000e4c:	4313      	orrs	r3, r2
 8000e4e:	608b      	str	r3, [r1, #8]
 8000e50:	e006      	b.n	8000e60 <HAL_GPIO_Init+0x228>
 8000e52:	4b35      	ldr	r3, [pc, #212]	; (8000f28 <HAL_GPIO_Init+0x2f0>)
 8000e54:	689a      	ldr	r2, [r3, #8]
 8000e56:	69bb      	ldr	r3, [r7, #24]
 8000e58:	43db      	mvns	r3, r3
 8000e5a:	4933      	ldr	r1, [pc, #204]	; (8000f28 <HAL_GPIO_Init+0x2f0>)
 8000e5c:	4013      	ands	r3, r2
 8000e5e:	608b      	str	r3, [r1, #8]
 8000e60:	683b      	ldr	r3, [r7, #0]
 8000e62:	685b      	ldr	r3, [r3, #4]
 8000e64:	f403 1300 	and.w	r3, r3, #2097152	; 0x200000
 8000e68:	2b00      	cmp	r3, #0
 8000e6a:	d006      	beq.n	8000e7a <HAL_GPIO_Init+0x242>
 8000e6c:	4b2e      	ldr	r3, [pc, #184]	; (8000f28 <HAL_GPIO_Init+0x2f0>)
 8000e6e:	68da      	ldr	r2, [r3, #12]
 8000e70:	492d      	ldr	r1, [pc, #180]	; (8000f28 <HAL_GPIO_Init+0x2f0>)
 8000e72:	69bb      	ldr	r3, [r7, #24]
 8000e74:	4313      	orrs	r3, r2
 8000e76:	60cb      	str	r3, [r1, #12]
 8000e78:	e006      	b.n	8000e88 <HAL_GPIO_Init+0x250>
 8000e7a:	4b2b      	ldr	r3, [pc, #172]	; (8000f28 <HAL_GPIO_Init+0x2f0>)
 8000e7c:	68da      	ldr	r2, [r3, #12]
 8000e7e:	69bb      	ldr	r3, [r7, #24]
 8000e80:	43db      	mvns	r3, r3
 8000e82:	4929      	ldr	r1, [pc, #164]	; (8000f28 <HAL_GPIO_Init+0x2f0>)
 8000e84:	4013      	ands	r3, r2
 8000e86:	60cb      	str	r3, [r1, #12]
 8000e88:	683b      	ldr	r3, [r7, #0]
 8000e8a:	685b      	ldr	r3, [r3, #4]
 8000e8c:	f403 3300 	and.w	r3, r3, #131072	; 0x20000
 8000e90:	2b00      	cmp	r3, #0
 8000e92:	d006      	beq.n	8000ea2 <HAL_GPIO_Init+0x26a>
 8000e94:	4b24      	ldr	r3, [pc, #144]	; (8000f28 <HAL_GPIO_Init+0x2f0>)
 8000e96:	685a      	ldr	r2, [r3, #4]
 8000e98:	4923      	ldr	r1, [pc, #140]	; (8000f28 <HAL_GPIO_Init+0x2f0>)
 8000e9a:	69bb      	ldr	r3, [r7, #24]
 8000e9c:	4313      	orrs	r3, r2
 8000e9e:	604b      	str	r3, [r1, #4]
 8000ea0:	e006      	b.n	8000eb0 <HAL_GPIO_Init+0x278>
 8000ea2:	4b21      	ldr	r3, [pc, #132]	; (8000f28 <HAL_GPIO_Init+0x2f0>)
 8000ea4:	685a      	ldr	r2, [r3, #4]
 8000ea6:	69bb      	ldr	r3, [r7, #24]
 8000ea8:	43db      	mvns	r3, r3
 8000eaa:	491f      	ldr	r1, [pc, #124]	; (8000f28 <HAL_GPIO_Init+0x2f0>)
 8000eac:	4013      	ands	r3, r2
 8000eae:	604b      	str	r3, [r1, #4]
 8000eb0:	683b      	ldr	r3, [r7, #0]
 8000eb2:	685b      	ldr	r3, [r3, #4]
 8000eb4:	f403 3380 	and.w	r3, r3, #65536	; 0x10000
 8000eb8:	2b00      	cmp	r3, #0
 8000eba:	d006      	beq.n	8000eca <HAL_GPIO_Init+0x292>
 8000ebc:	4b1a      	ldr	r3, [pc, #104]	; (8000f28 <HAL_GPIO_Init+0x2f0>)
 8000ebe:	681a      	ldr	r2, [r3, #0]
 8000ec0:	4919      	ldr	r1, [pc, #100]	; (8000f28 <HAL_GPIO_Init+0x2f0>)
 8000ec2:	69bb      	ldr	r3, [r7, #24]
 8000ec4:	4313      	orrs	r3, r2
 8000ec6:	600b      	str	r3, [r1, #0]
 8000ec8:	e006      	b.n	8000ed8 <HAL_GPIO_Init+0x2a0>
 8000eca:	4b17      	ldr	r3, [pc, #92]	; (8000f28 <HAL_GPIO_Init+0x2f0>)
 8000ecc:	681a      	ldr	r2, [r3, #0]
 8000ece:	69bb      	ldr	r3, [r7, #24]
 8000ed0:	43db      	mvns	r3, r3
 8000ed2:	4915      	ldr	r1, [pc, #84]	; (8000f28 <HAL_GPIO_Init+0x2f0>)
 8000ed4:	4013      	ands	r3, r2
 8000ed6:	600b      	str	r3, [r1, #0]
 8000ed8:	6a7b      	ldr	r3, [r7, #36]	; 0x24
 8000eda:	3301      	adds	r3, #1
 8000edc:	627b      	str	r3, [r7, #36]	; 0x24
 8000ede:	683b      	ldr	r3, [r7, #0]
 8000ee0:	681a      	ldr	r2, [r3, #0]
 8000ee2:	6a7b      	ldr	r3, [r7, #36]	; 0x24
 8000ee4:	fa22 f303 	lsr.w	r3, r2, r3
 8000ee8:	2b00      	cmp	r3, #0
 8000eea:	f47f aeaf 	bne.w	8000c4c <HAL_GPIO_Init+0x14>
 8000eee:	bf00      	nop
 8000ef0:	bf00      	nop
 8000ef2:	372c      	adds	r7, #44	; 0x2c
 8000ef4:	46bd      	mov	sp, r7
 8000ef6:	bc80      	pop	{r7}
 8000ef8:	4770      	bx	lr
 8000efa:	bf00      	nop
 8000efc:	10320000 	.word	0x10320000
 8000f00:	10310000 	.word	0x10310000
 8000f04:	10220000 	.word	0x10220000
 8000f08:	10210000 	.word	0x10210000
 8000f0c:	10120000 	.word	0x10120000
 8000f10:	10110000 	.word	0x10110000
 8000f14:	40021000 	.word	0x40021000
 8000f18:	40010000 	.word	0x40010000
 8000f1c:	40010800 	.word	0x40010800
 8000f20:	40010c00 	.word	0x40010c00
 8000f24:	40011000 	.word	0x40011000
 8000f28:	40010400 	.word	0x40010400

08000f2c <HAL_GPIO_WritePin>:
 8000f2c:	b480      	push	{r7}
 8000f2e:	b083      	sub	sp, #12
 8000f30:	af00      	add	r7, sp, #0
 8000f32:	6078      	str	r0, [r7, #4]
 8000f34:	460b      	mov	r3, r1
 8000f36:	807b      	strh	r3, [r7, #2]
 8000f38:	4613      	mov	r3, r2
 8000f3a:	707b      	strb	r3, [r7, #1]
 8000f3c:	787b      	ldrb	r3, [r7, #1]
 8000f3e:	2b00      	cmp	r3, #0
 8000f40:	d003      	beq.n	8000f4a <HAL_GPIO_WritePin+0x1e>
 8000f42:	887a      	ldrh	r2, [r7, #2]
 8000f44:	687b      	ldr	r3, [r7, #4]
 8000f46:	611a      	str	r2, [r3, #16]
 8000f48:	e003      	b.n	8000f52 <HAL_GPIO_WritePin+0x26>
 8000f4a:	887b      	ldrh	r3, [r7, #2]
 8000f4c:	041a      	lsls	r2, r3, #16
 8000f4e:	687b      	ldr	r3, [r7, #4]
 8000f50:	611a      	str	r2, [r3, #16]
 8000f52:	bf00      	nop
 8000f54:	370c      	adds	r7, #12
 8000f56:	46bd      	mov	sp, r7
 8000f58:	bc80      	pop	{r7}
 8000f5a:	4770      	bx	lr

08000f5c <HAL_RCC_OscConfig>:
 8000f5c:	b580      	push	{r7, lr}
 8000f5e:	b086      	sub	sp, #24
 8000f60:	af00      	add	r7, sp, #0
 8000f62:	6078      	str	r0, [r7, #4]
 8000f64:	687b      	ldr	r3, [r7, #4]
 8000f66:	2b00      	cmp	r3, #0
 8000f68:	d101      	bne.n	8000f6e <HAL_RCC_OscConfig+0x12>
 8000f6a:	2301      	movs	r3, #1
 8000f6c:	e26c      	b.n	8001448 <HAL_RCC_OscConfig+0x4ec>
 8000f6e:	687b      	ldr	r3, [r7, #4]
 8000f70:	681b      	ldr	r3, [r3, #0]
 8000f72:	f003 0301 	and.w	r3, r3, #1
 8000f76:	2b00      	cmp	r3, #0
 8000f78:	f000 8087 	beq.w	800108a <HAL_RCC_OscConfig+0x12e>
 8000f7c:	4b92      	ldr	r3, [pc, #584]	; (80011c8 <HAL_RCC_OscConfig+0x26c>)
 8000f7e:	685b      	ldr	r3, [r3, #4]
 8000f80:	f003 030c 	and.w	r3, r3, #12
 8000f84:	2b04      	cmp	r3, #4
 8000f86:	d00c      	beq.n	8000fa2 <HAL_RCC_OscConfig+0x46>
 8000f88:	4b8f      	ldr	r3, [pc, #572]	; (80011c8 <HAL_RCC_OscConfig+0x26c>)
 8000f8a:	685b      	ldr	r3, [r3, #4]
 8000f8c:	f003 030c 	and.w	r3, r3, #12
 8000f90:	2b08      	cmp	r3, #8
 8000f92:	d112      	bne.n	8000fba <HAL_RCC_OscConfig+0x5e>
 8000f94:	4b8c      	ldr	r3, [pc, #560]	; (80011c8 <HAL_RCC_OscConfig+0x26c>)
 8000f96:	685b      	ldr	r3, [r3, #4]
 8000f98:	f403 3380 	and.w	r3, r3, #65536	; 0x10000
 8000f9c:	f5b3 3f80 	cmp.w	r3, #65536	; 0x10000
 8000fa0:	d10b      	bne.n	8000fba <HAL_RCC_OscConfig+0x5e>
 8000fa2:	4b89      	ldr	r3, [pc, #548]	; (80011c8 <HAL_RCC_OscConfig+0x26c>)
 8000fa4:	681b      	ldr	r3, [r3, #0]
 8000fa6:	f403 3300 	and.w	r3, r3, #131072	; 0x20000
 8000faa:	2b00      	cmp	r3, #0
 8000fac:	d06c      	beq.n	8001088 <HAL_RCC_OscConfig+0x12c>
 8000fae:	687b      	ldr	r3, [r7, #4]
 8000fb0:	685b      	ldr	r3, [r3, #4]
 8000fb2:	2b00      	cmp	r3, #0
 8000fb4:	d168      	bne.n	8001088 <HAL_RCC_OscConfig+0x12c>
 8000fb6:	2301      	movs	r3, #1
 8000fb8:	e246      	b.n	8001448 <HAL_RCC_OscConfig+0x4ec>
 8000fba:	687b      	ldr	r3, [r7, #4]
 8000fbc:	685b      	ldr	r3, [r3, #4]
 8000fbe:	f5b3 3f80 	cmp.w	r3, #65536	; 0x10000
 8000fc2:	d106      	bne.n	8000fd2 <HAL_RCC_OscConfig+0x76>
 8000fc4:	4b80      	ldr	r3, [pc, #512]	; (80011c8 <HAL_RCC_OscConfig+0x26c>)
 8000fc6:	681b      	ldr	r3, [r3, #0]
 8000fc8:	4a7f      	ldr	r2, [pc, #508]	; (80011c8 <HAL_RCC_OscConfig+0x26c>)
 8000fca:	f443 3380 	orr.w	r3, r3, #65536	; 0x10000
 8000fce:	6013      	str	r3, [r2, #0]
 8000fd0:	e02e      	b.n	8001030 <HAL_RCC_OscConfig+0xd4>
 8000fd2:	687b      	ldr	r3, [r7, #4]
 8000fd4:	685b      	ldr	r3, [r3, #4]
 8000fd6:	2b00      	cmp	r3, #0
 8000fd8:	d10c      	bne.n	8000ff4 <HAL_RCC_OscConfig+0x98>
 8000fda:	4b7b      	ldr	r3, [pc, #492]	; (80011c8 <HAL_RCC_OscConfig+0x26c>)
 8000fdc:	681b      	ldr	r3, [r3, #0]
 8000fde:	4a7a      	ldr	r2, [pc, #488]	; (80011c8 <HAL_RCC_OscConfig+0x26c>)
 8000fe0:	f423 3380 	bic.w	r3, r3, #65536	; 0x10000
 8000fe4:	6013      	str	r3, [r2, #0]
 8000fe6:	4b78      	ldr	r3, [pc, #480]	; (80011c8 <HAL_RCC_OscConfig+0x26c>)
 8000fe8:	681b      	ldr	r3, [r3, #0]
 8000fea:	4a77      	ldr	r2, [pc, #476]	; (80011c8 <HAL_RCC_OscConfig+0x26c>)
 8000fec:	f423 2380 	bic.w	r3, r3, #262144	; 0x40000
 8000ff0:	6013      	str	r3, [r2, #0]
 8000ff2:	e01d      	b.n	8001030 <HAL_RCC_OscConfig+0xd4>
 8000ff4:	687b      	ldr	r3, [r7, #4]
 8000ff6:	685b      	ldr	r3, [r3, #4]
 8000ff8:	f5b3 2fa0 	cmp.w	r3, #327680	; 0x50000
 8000ffc:	d10c      	bne.n	8001018 <HAL_RCC_OscConfig+0xbc>
 8000ffe:	4b72      	ldr	r3, [pc, #456]	; (80011c8 <HAL_RCC_OscConfig+0x26c>)
 8001000:	681b      	ldr	r3, [r3, #0]
 8001002:	4a71      	ldr	r2, [pc, #452]	; (80011c8 <HAL_RCC_OscConfig+0x26c>)
 8001004:	f443 2380 	orr.w	r3, r3, #262144	; 0x40000
 8001008:	6013      	str	r3, [r2, #0]
 800100a:	4b6f      	ldr	r3, [pc, #444]	; (80011c8 <HAL_RCC_OscConfig+0x26c>)
 800100c:	681b      	ldr	r3, [r3, #0]
 800100e:	4a6e      	ldr	r2, [pc, #440]	; (80011c8 <HAL_RCC_OscConfig+0x26c>)
 8001010:	f443 3380 	orr.w	r3, r3, #65536	; 0x10000
 8001014:	6013      	str	r3, [r2, #0]
 8001016:	e00b      	b.n	8001030 <HAL_RCC_OscConfig+0xd4>
 8001018:	4b6b      	ldr	r3, [pc, #428]	; (80011c8 <HAL_RCC_OscConfig+0x26c>)
 800101a:	681b      	ldr	r3, [r3, #0]
 800101c:	4a6a      	ldr	r2, [pc, #424]	; (80011c8 <HAL_RCC_OscConfig+0x26c>)
 800101e:	f423 3380 	bic.w	r3, r3, #65536	; 0x10000
 8001022:	6013      	str	r3, [r2, #0]
 8001024:	4b68      	ldr	r3, [pc, #416]	; (80011c8 <HAL_RCC_OscConfig+0x26c>)
 8001026:	681b      	ldr	r3, [r3, #0]
 8001028:	4a67      	ldr	r2, [pc, #412]	; (80011c8 <HAL_RCC_OscConfig+0x26c>)
 800102a:	f423 2380 	bic.w	r3, r3, #262144	; 0x40000
 800102e:	6013      	str	r3, [r2, #0]
 8001030:	687b      	ldr	r3, [r7, #4]
 8001032:	685b      	ldr	r3, [r3, #4]
 8001034:	2b00      	cmp	r3, #0
 8001036:	d013      	beq.n	8001060 <HAL_RCC_OscConfig+0x104>
 8001038:	f7ff fce6 	bl	8000a08 <HAL_GetTick>
 800103c:	6138      	str	r0, [r7, #16]
 800103e:	e008      	b.n	8001052 <HAL_RCC_OscConfig+0xf6>
 8001040:	f7ff fce2 	bl	8000a08 <HAL_GetTick>
 8001044:	4602      	mov	r2, r0
 8001046:	693b      	ldr	r3, [r7, #16]
 8001048:	1ad3      	subs	r3, r2, r3
 800104a:	2b64      	cmp	r3, #100	; 0x64
 800104c:	d901      	bls.n	8001052 <HAL_RCC_OscConfig+0xf6>
 800104e:	2303      	movs	r3, #3
 8001050:	e1fa      	b.n	8001448 <HAL_RCC_OscConfig+0x4ec>
 8001052:	4b5d      	ldr	r3, [pc, #372]	; (80011c8 <HAL_RCC_OscConfig+0x26c>)
 8001054:	681b      	ldr	r3, [r3, #0]
 8001056:	f403 3300 	and.w	r3, r3, #131072	; 0x20000
 800105a:	2b00      	cmp	r3, #0
 800105c:	d0f0      	beq.n	8001040 <HAL_RCC_OscConfig+0xe4>
 800105e:	e014      	b.n	800108a <HAL_RCC_OscConfig+0x12e>
 8001060:	f7ff fcd2 	bl	8000a08 <HAL_GetTick>
 8001064:	6138      	str	r0, [r7, #16]
 8001066:	e008      	b.n	800107a <HAL_RCC_OscConfig+0x11e>
 8001068:	f7ff fcce 	bl	8000a08 <HAL_GetTick>
 800106c:	4602      	mov	r2, r0
 800106e:	693b      	ldr	r3, [r7, #16]
 8001070:	1ad3      	subs	r3, r2, r3
 8001072:	2b64      	cmp	r3, #100	; 0x64
 8001074:	d901      	bls.n	800107a <HAL_RCC_OscConfig+0x11e>
 8001076:	2303      	movs	r3, #3
 8001078:	e1e6      	b.n	8001448 <HAL_RCC_OscConfig+0x4ec>
 800107a:	4b53      	ldr	r3, [pc, #332]	; (80011c8 <HAL_RCC_OscConfig+0x26c>)
 800107c:	681b      	ldr	r3, [r3, #0]
 800107e:	f403 3300 	and.w	r3, r3, #131072	; 0x20000
 8001082:	2b00      	cmp	r3, #0
 8001084:	d1f0      	bne.n	8001068 <HAL_RCC_OscConfig+0x10c>
 8001086:	e000      	b.n	800108a <HAL_RCC_OscConfig+0x12e>
 8001088:	bf00      	nop
 800108a:	687b      	ldr	r3, [r7, #4]
 800108c:	681b      	ldr	r3, [r3, #0]
 800108e:	f003 0302 	and.w	r3, r3, #2
 8001092:	2b00      	cmp	r3, #0
 8001094:	d063      	beq.n	800115e <HAL_RCC_OscConfig+0x202>
 8001096:	4b4c      	ldr	r3, [pc, #304]	; (80011c8 <HAL_RCC_OscConfig+0x26c>)
 8001098:	685b      	ldr	r3, [r3, #4]
 800109a:	f003 030c 	and.w	r3, r3, #12
 800109e:	2b00      	cmp	r3, #0
 80010a0:	d00b      	beq.n	80010ba <HAL_RCC_OscConfig+0x15e>
 80010a2:	4b49      	ldr	r3, [pc, #292]	; (80011c8 <HAL_RCC_OscConfig+0x26c>)
 80010a4:	685b      	ldr	r3, [r3, #4]
 80010a6:	f003 030c 	and.w	r3, r3, #12
 80010aa:	2b08      	cmp	r3, #8
 80010ac:	d11c      	bne.n	80010e8 <HAL_RCC_OscConfig+0x18c>
 80010ae:	4b46      	ldr	r3, [pc, #280]	; (80011c8 <HAL_RCC_OscConfig+0x26c>)
 80010b0:	685b      	ldr	r3, [r3, #4]
 80010b2:	f403 3380 	and.w	r3, r3, #65536	; 0x10000
 80010b6:	2b00      	cmp	r3, #0
 80010b8:	d116      	bne.n	80010e8 <HAL_RCC_OscConfig+0x18c>
 80010ba:	4b43      	ldr	r3, [pc, #268]	; (80011c8 <HAL_RCC_OscConfig+0x26c>)
 80010bc:	681b      	ldr	r3, [r3, #0]
 80010be:	f003 0302 	and.w	r3, r3, #2
 80010c2:	2b00      	cmp	r3, #0
 80010c4:	d005      	beq.n	80010d2 <HAL_RCC_OscConfig+0x176>
 80010c6:	687b      	ldr	r3, [r7, #4]
 80010c8:	691b      	ldr	r3, [r3, #16]
 80010ca:	2b01      	cmp	r3, #1
 80010cc:	d001      	beq.n	80010d2 <HAL_RCC_OscConfig+0x176>
 80010ce:	2301      	movs	r3, #1
 80010d0:	e1ba      	b.n	8001448 <HAL_RCC_OscConfig+0x4ec>
 80010d2:	4b3d      	ldr	r3, [pc, #244]	; (80011c8 <HAL_RCC_OscConfig+0x26c>)
 80010d4:	681b      	ldr	r3, [r3, #0]
 80010d6:	f023 02f8 	bic.w	r2, r3, #248	; 0xf8
 80010da:	687b      	ldr	r3, [r7, #4]
 80010dc:	695b      	ldr	r3, [r3, #20]
 80010de:	00db      	lsls	r3, r3, #3
 80010e0:	4939      	ldr	r1, [pc, #228]	; (80011c8 <HAL_RCC_OscConfig+0x26c>)
 80010e2:	4313      	orrs	r3, r2
 80010e4:	600b      	str	r3, [r1, #0]
 80010e6:	e03a      	b.n	800115e <HAL_RCC_OscConfig+0x202>
 80010e8:	687b      	ldr	r3, [r7, #4]
 80010ea:	691b      	ldr	r3, [r3, #16]
 80010ec:	2b00      	cmp	r3, #0
 80010ee:	d020      	beq.n	8001132 <HAL_RCC_OscConfig+0x1d6>
 80010f0:	4b36      	ldr	r3, [pc, #216]	; (80011cc <HAL_RCC_OscConfig+0x270>)
 80010f2:	2201      	movs	r2, #1
 80010f4:	601a      	str	r2, [r3, #0]
 80010f6:	f7ff fc87 	bl	8000a08 <HAL_GetTick>
 80010fa:	6138      	str	r0, [r7, #16]
 80010fc:	e008      	b.n	8001110 <HAL_RCC_OscConfig+0x1b4>
 80010fe:	f7ff fc83 	bl	8000a08 <HAL_GetTick>
 8001102:	4602      	mov	r2, r0
 8001104:	693b      	ldr	r3, [r7, #16]
 8001106:	1ad3      	subs	r3, r2, r3
 8001108:	2b02      	cmp	r3, #2
 800110a:	d901      	bls.n	8001110 <HAL_RCC_OscConfig+0x1b4>
 800110c:	2303      	movs	r3, #3
 800110e:	e19b      	b.n	8001448 <HAL_RCC_OscConfig+0x4ec>
 8001110:	4b2d      	ldr	r3, [pc, #180]	; (80011c8 <HAL_RCC_OscConfig+0x26c>)
 8001112:	681b      	ldr	r3, [r3, #0]
 8001114:	f003 0302 	and.w	r3, r3, #2
 8001118:	2b00      	cmp	r3, #0
 800111a:	d0f0      	beq.n	80010fe <HAL_RCC_OscConfig+0x1a2>
 800111c:	4b2a      	ldr	r3, [pc, #168]	; (80011c8 <HAL_RCC_OscConfig+0x26c>)
 800111e:	681b      	ldr	r3, [r3, #0]
 8001120:	f023 02f8 	bic.w	r2, r3, #248	; 0xf8
 8001124:	687b      	ldr	r3, [r7, #4]
 8001126:	695b      	ldr	r3, [r3, #20]
 8001128:	00db      	lsls	r3, r3, #3
 800112a:	4927      	ldr	r1, [pc, #156]	; (80011c8 <HAL_RCC_OscConfig+0x26c>)
 800112c:	4313      	orrs	r3, r2
 800112e:	600b      	str	r3, [r1, #0]
 8001130:	e015      	b.n	800115e <HAL_RCC_OscConfig+0x202>
 8001132:	4b26      	ldr	r3, [pc, #152]	; (80011cc <HAL_RCC_OscConfig+0x270>)
 8001134:	2200      	movs	r2, #0
 8001136:	601a      	str	r2, [r3, #0]
 8001138:	f7ff fc66 	bl	8000a08 <HAL_GetTick>
 800113c:	6138      	str	r0, [r7, #16]
 800113e:	e008      	b.n	8001152 <HAL_RCC_OscConfig+0x1f6>
 8001140:	f7ff fc62 	bl	8000a08 <HAL_GetTick>
 8001144:	4602      	mov	r2, r0
 8001146:	693b      	ldr	r3, [r7, #16]
 8001148:	1ad3      	subs	r3, r2, r3
 800114a:	2b02      	cmp	r3, #2
 800114c:	d901      	bls.n	8001152 <HAL_RCC_OscConfig+0x1f6>
 800114e:	2303      	movs	r3, #3
 8001150:	e17a      	b.n	8001448 <HAL_RCC_OscConfig+0x4ec>
 8001152:	4b1d      	ldr	r3, [pc, #116]	; (80011c8 <HAL_RCC_OscConfig+0x26c>)
 8001154:	681b      	ldr	r3, [r3, #0]
 8001156:	f003 0302 	and.w	r3, r3, #2
 800115a:	2b00      	cmp	r3, #0
 800115c:	d1f0      	bne.n	8001140 <HAL_RCC_OscConfig+0x1e4>
 800115e:	687b      	ldr	r3, [r7, #4]
 8001160:	681b      	ldr	r3, [r3, #0]
 8001162:	f003 0308 	and.w	r3, r3, #8
 8001166:	2b00      	cmp	r3, #0
 8001168:	d03a      	beq.n	80011e0 <HAL_RCC_OscConfig+0x284>
 800116a:	687b      	ldr	r3, [r7, #4]
 800116c:	699b      	ldr	r3, [r3, #24]
 800116e:	2b00      	cmp	r3, #0
 8001170:	d019      	beq.n	80011a6 <HAL_RCC_OscConfig+0x24a>
 8001172:	4b17      	ldr	r3, [pc, #92]	; (80011d0 <HAL_RCC_OscConfig+0x274>)
 8001174:	2201      	movs	r2, #1
 8001176:	601a      	str	r2, [r3, #0]
 8001178:	f7ff fc46 	bl	8000a08 <HAL_GetTick>
 800117c:	6138      	str	r0, [r7, #16]
 800117e:	e008      	b.n	8001192 <HAL_RCC_OscConfig+0x236>
 8001180:	f7ff fc42 	bl	8000a08 <HAL_GetTick>
 8001184:	4602      	mov	r2, r0
 8001186:	693b      	ldr	r3, [r7, #16]
 8001188:	1ad3      	subs	r3, r2, r3
 800118a:	2b02      	cmp	r3, #2
 800118c:	d901      	bls.n	8001192 <HAL_RCC_OscConfig+0x236>
 800118e:	2303      	movs	r3, #3
 8001190:	e15a      	b.n	8001448 <HAL_RCC_OscConfig+0x4ec>
 8001192:	4b0d      	ldr	r3, [pc, #52]	; (80011c8 <HAL_RCC_OscConfig+0x26c>)
 8001194:	6a5b      	ldr	r3, [r3, #36]	; 0x24
 8001196:	f003 0302 	and.w	r3, r3, #2
 800119a:	2b00      	cmp	r3, #0
 800119c:	d0f0      	beq.n	8001180 <HAL_RCC_OscConfig+0x224>
 800119e:	2001      	movs	r0, #1
 80011a0:	f000 fa9a 	bl	80016d8 <RCC_Delay>
 80011a4:	e01c      	b.n	80011e0 <HAL_RCC_OscConfig+0x284>
 80011a6:	4b0a      	ldr	r3, [pc, #40]	; (80011d0 <HAL_RCC_OscConfig+0x274>)
 80011a8:	2200      	movs	r2, #0
 80011aa:	601a      	str	r2, [r3, #0]
 80011ac:	f7ff fc2c 	bl	8000a08 <HAL_GetTick>
 80011b0:	6138      	str	r0, [r7, #16]
 80011b2:	e00f      	b.n	80011d4 <HAL_RCC_OscConfig+0x278>
 80011b4:	f7ff fc28 	bl	8000a08 <HAL_GetTick>
 80011b8:	4602      	mov	r2, r0
 80011ba:	693b      	ldr	r3, [r7, #16]
 80011bc:	1ad3      	subs	r3, r2, r3
 80011be:	2b02      	cmp	r3, #2
 80011c0:	d908      	bls.n	80011d4 <HAL_RCC_OscConfig+0x278>
 80011c2:	2303      	movs	r3, #3
 80011c4:	e140      	b.n	8001448 <HAL_RCC_OscConfig+0x4ec>
 80011c6:	bf00      	nop
 80011c8:	40021000 	.word	0x40021000
 80011cc:	42420000 	.word	0x42420000
 80011d0:	42420480 	.word	0x42420480
 80011d4:	4b9e      	ldr	r3, [pc, #632]	; (8001450 <HAL_RCC_OscConfig+0x4f4>)
 80011d6:	6a5b      	ldr	r3, [r3, #36]	; 0x24
 80011d8:	f003 0302 	and.w	r3, r3, #2
 80011dc:	2b00      	cmp	r3, #0
 80011de:	d1e9      	bne.n	80011b4 <HAL_RCC_OscConfig+0x258>
 80011e0:	687b      	ldr	r3, [r7, #4]
 80011e2:	681b      	ldr	r3, [r3, #0]
 80011e4:	f003 0304 	and.w	r3, r3, #4
 80011e8:	2b00      	cmp	r3, #0
 80011ea:	f000 80a6 	beq.w	800133a <HAL_RCC_OscConfig+0x3de>
 80011ee:	2300      	movs	r3, #0
 80011f0:	75fb      	strb	r3, [r7, #23]
 80011f2:	4b97      	ldr	r3, [pc, #604]	; (8001450 <HAL_RCC_OscConfig+0x4f4>)
 80011f4:	69db      	ldr	r3, [r3, #28]
 80011f6:	f003 5380 	and.w	r3, r3, #268435456	; 0x10000000
 80011fa:	2b00      	cmp	r3, #0
 80011fc:	d10d      	bne.n	800121a <HAL_RCC_OscConfig+0x2be>
 80011fe:	4b94      	ldr	r3, [pc, #592]	; (8001450 <HAL_RCC_OscConfig+0x4f4>)
 8001200:	69db      	ldr	r3, [r3, #28]
 8001202:	4a93      	ldr	r2, [pc, #588]	; (8001450 <HAL_RCC_OscConfig+0x4f4>)
 8001204:	f043 5380 	orr.w	r3, r3, #268435456	; 0x10000000
 8001208:	61d3      	str	r3, [r2, #28]
 800120a:	4b91      	ldr	r3, [pc, #580]	; (8001450 <HAL_RCC_OscConfig+0x4f4>)
 800120c:	69db      	ldr	r3, [r3, #28]
 800120e:	f003 5380 	and.w	r3, r3, #268435456	; 0x10000000
 8001212:	60bb      	str	r3, [r7, #8]
 8001214:	68bb      	ldr	r3, [r7, #8]
 8001216:	2301      	movs	r3, #1
 8001218:	75fb      	strb	r3, [r7, #23]
 800121a:	4b8e      	ldr	r3, [pc, #568]	; (8001454 <HAL_RCC_OscConfig+0x4f8>)
 800121c:	681b      	ldr	r3, [r3, #0]
 800121e:	f403 7380 	and.w	r3, r3, #256	; 0x100
 8001222:	2b00      	cmp	r3, #0
 8001224:	d118      	bne.n	8001258 <HAL_RCC_OscConfig+0x2fc>
 8001226:	4b8b      	ldr	r3, [pc, #556]	; (8001454 <HAL_RCC_OscConfig+0x4f8>)
 8001228:	681b      	ldr	r3, [r3, #0]
 800122a:	4a8a      	ldr	r2, [pc, #552]	; (8001454 <HAL_RCC_OscConfig+0x4f8>)
 800122c:	f443 7380 	orr.w	r3, r3, #256	; 0x100
 8001230:	6013      	str	r3, [r2, #0]
 8001232:	f7ff fbe9 	bl	8000a08 <HAL_GetTick>
 8001236:	6138      	str	r0, [r7, #16]
 8001238:	e008      	b.n	800124c <HAL_RCC_OscConfig+0x2f0>
 800123a:	f7ff fbe5 	bl	8000a08 <HAL_GetTick>
 800123e:	4602      	mov	r2, r0
 8001240:	693b      	ldr	r3, [r7, #16]
 8001242:	1ad3      	subs	r3, r2, r3
 8001244:	2b64      	cmp	r3, #100	; 0x64
 8001246:	d901      	bls.n	800124c <HAL_RCC_OscConfig+0x2f0>
 8001248:	2303      	movs	r3, #3
 800124a:	e0fd      	b.n	8001448 <HAL_RCC_OscConfig+0x4ec>
 800124c:	4b81      	ldr	r3, [pc, #516]	; (8001454 <HAL_RCC_OscConfig+0x4f8>)
 800124e:	681b      	ldr	r3, [r3, #0]
 8001250:	f403 7380 	and.w	r3, r3, #256	; 0x100
 8001254:	2b00      	cmp	r3, #0
 8001256:	d0f0      	beq.n	800123a <HAL_RCC_OscConfig+0x2de>
 8001258:	687b      	ldr	r3, [r7, #4]
 800125a:	68db      	ldr	r3, [r3, #12]
 800125c:	2b01      	cmp	r3, #1
 800125e:	d106      	bne.n	800126e <HAL_RCC_OscConfig+0x312>
 8001260:	4b7b      	ldr	r3, [pc, #492]	; (8001450 <HAL_RCC_OscConfig+0x4f4>)
 8001262:	6a1b      	ldr	r3, [r3, #32]
 8001264:	4a7a      	ldr	r2, [pc, #488]	; (8001450 <HAL_RCC_OscConfig+0x4f4>)
 8001266:	f043 0301 	orr.w	r3, r3, #1
 800126a:	6213      	str	r3, [r2, #32]
 800126c:	e02d      	b.n	80012ca <HAL_RCC_OscConfig+0x36e>
 800126e:	687b      	ldr	r3, [r7, #4]
 8001270:	68db      	ldr	r3, [r3, #12]
 8001272:	2b00      	cmp	r3, #0
 8001274:	d10c      	bne.n	8001290 <HAL_RCC_OscConfig+0x334>
 8001276:	4b76      	ldr	r3, [pc, #472]	; (8001450 <HAL_RCC_OscConfig+0x4f4>)
 8001278:	6a1b      	ldr	r3, [r3, #32]
 800127a:	4a75      	ldr	r2, [pc, #468]	; (8001450 <HAL_RCC_OscConfig+0x4f4>)
 800127c:	f023 0301 	bic.w	r3, r3, #1
 8001280:	6213      	str	r3, [r2, #32]
 8001282:	4b73      	ldr	r3, [pc, #460]	; (8001450 <HAL_RCC_OscConfig+0x4f4>)
 8001284:	6a1b      	ldr	r3, [r3, #32]
 8001286:	4a72      	ldr	r2, [pc, #456]	; (8001450 <HAL_RCC_OscConfig+0x4f4>)
 8001288:	f023 0304 	bic.w	r3, r3, #4
 800128c:	6213      	str	r3, [r2, #32]
 800128e:	e01c      	b.n	80012ca <HAL_RCC_OscConfig+0x36e>
 8001290:	687b      	ldr	r3, [r7, #4]
 8001292:	68db      	ldr	r3, [r3, #12]
 8001294:	2b05      	cmp	r3, #5
 8001296:	d10c      	bne.n	80012b2 <HAL_RCC_OscConfig+0x356>
 8001298:	4b6d      	ldr	r3, [pc, #436]	; (8001450 <HAL_RCC_OscConfig+0x4f4>)
 800129a:	6a1b      	ldr	r3, [r3, #32]
 800129c:	4a6c      	ldr	r2, [pc, #432]	; (8001450 <HAL_RCC_OscConfig+0x4f4>)
 800129e:	f043 0304 	orr.w	r3, r3, #4
 80012a2:	6213      	str	r3, [r2, #32]
 80012a4:	4b6a      	ldr	r3, [pc, #424]	; (8001450 <HAL_RCC_OscConfig+0x4f4>)
 80012a6:	6a1b      	ldr	r3, [r3, #32]
 80012a8:	4a69      	ldr	r2, [pc, #420]	; (8001450 <HAL_RCC_OscConfig+0x4f4>)
 80012aa:	f043 0301 	orr.w	r3, r3, #1
 80012ae:	6213      	str	r3, [r2, #32]
 80012b0:	e00b      	b.n	80012ca <HAL_RCC_OscConfig+0x36e>
 80012b2:	4b67      	ldr	r3, [pc, #412]	; (8001450 <HAL_RCC_OscConfig+0x4f4>)
 80012b4:	6a1b      	ldr	r3, [r3, #32]
 80012b6:	4a66      	ldr	r2, [pc, #408]	; (8001450 <HAL_RCC_OscConfig+0x4f4>)
 80012b8:	f023 0301 	bic.w	r3, r3, #1
 80012bc:	6213      	str	r3, [r2, #32]
 80012be:	4b64      	ldr	r3, [pc, #400]	; (8001450 <HAL_RCC_OscConfig+0x4f4>)
 80012c0:	6a1b      	ldr	r3, [r3, #32]
 80012c2:	4a63      	ldr	r2, [pc, #396]	; (8001450 <HAL_RCC_OscConfig+0x4f4>)
 80012c4:	f023 0304 	bic.w	r3, r3, #4
 80012c8:	6213      	str	r3, [r2, #32]
 80012ca:	687b      	ldr	r3, [r7, #4]
 80012cc:	68db      	ldr	r3, [r3, #12]
 80012ce:	2b00      	cmp	r3, #0
 80012d0:	d015      	beq.n	80012fe <HAL_RCC_OscConfig+0x3a2>
 80012d2:	f7ff fb99 	bl	8000a08 <HAL_GetTick>
 80012d6:	6138      	str	r0, [r7, #16]
 80012d8:	e00a      	b.n	80012f0 <HAL_RCC_OscConfig+0x394>
 80012da:	f7ff fb95 	bl	8000a08 <HAL_GetTick>
 80012de:	4602      	mov	r2, r0
 80012e0:	693b      	ldr	r3, [r7, #16]
 80012e2:	1ad3      	subs	r3, r2, r3
 80012e4:	f241 3288 	movw	r2, #5000	; 0x1388
 80012e8:	4293      	cmp	r3, r2
 80012ea:	d901      	bls.n	80012f0 <HAL_RCC_OscConfig+0x394>
 80012ec:	2303      	movs	r3, #3
 80012ee:	e0ab      	b.n	8001448 <HAL_RCC_OscConfig+0x4ec>
 80012f0:	4b57      	ldr	r3, [pc, #348]	; (8001450 <HAL_RCC_OscConfig+0x4f4>)
 80012f2:	6a1b      	ldr	r3, [r3, #32]
 80012f4:	f003 0302 	and.w	r3, r3, #2
 80012f8:	2b00      	cmp	r3, #0
 80012fa:	d0ee      	beq.n	80012da <HAL_RCC_OscConfig+0x37e>
 80012fc:	e014      	b.n	8001328 <HAL_RCC_OscConfig+0x3cc>
 80012fe:	f7ff fb83 	bl	8000a08 <HAL_GetTick>
 8001302:	6138      	str	r0, [r7, #16]
 8001304:	e00a      	b.n	800131c <HAL_RCC_OscConfig+0x3c0>
 8001306:	f7ff fb7f 	bl	8000a08 <HAL_GetTick>
 800130a:	4602      	mov	r2, r0
 800130c:	693b      	ldr	r3, [r7, #16]
 800130e:	1ad3      	subs	r3, r2, r3
 8001310:	f241 3288 	movw	r2, #5000	; 0x1388
 8001314:	4293      	cmp	r3, r2
 8001316:	d901      	bls.n	800131c <HAL_RCC_OscConfig+0x3c0>
 8001318:	2303      	movs	r3, #3
 800131a:	e095      	b.n	8001448 <HAL_RCC_OscConfig+0x4ec>
 800131c:	4b4c      	ldr	r3, [pc, #304]	; (8001450 <HAL_RCC_OscConfig+0x4f4>)
 800131e:	6a1b      	ldr	r3, [r3, #32]
 8001320:	f003 0302 	and.w	r3, r3, #2
 8001324:	2b00      	cmp	r3, #0
 8001326:	d1ee      	bne.n	8001306 <HAL_RCC_OscConfig+0x3aa>
 8001328:	7dfb      	ldrb	r3, [r7, #23]
 800132a:	2b01      	cmp	r3, #1
 800132c:	d105      	bne.n	800133a <HAL_RCC_OscConfig+0x3de>
 800132e:	4b48      	ldr	r3, [pc, #288]	; (8001450 <HAL_RCC_OscConfig+0x4f4>)
 8001330:	69db      	ldr	r3, [r3, #28]
 8001332:	4a47      	ldr	r2, [pc, #284]	; (8001450 <HAL_RCC_OscConfig+0x4f4>)
 8001334:	f023 5380 	bic.w	r3, r3, #268435456	; 0x10000000
 8001338:	61d3      	str	r3, [r2, #28]
 800133a:	687b      	ldr	r3, [r7, #4]
 800133c:	69db      	ldr	r3, [r3, #28]
 800133e:	2b00      	cmp	r3, #0
 8001340:	f000 8081 	beq.w	8001446 <HAL_RCC_OscConfig+0x4ea>
 8001344:	4b42      	ldr	r3, [pc, #264]	; (8001450 <HAL_RCC_OscConfig+0x4f4>)
 8001346:	685b      	ldr	r3, [r3, #4]
 8001348:	f003 030c 	and.w	r3, r3, #12
 800134c:	2b08      	cmp	r3, #8
 800134e:	d061      	beq.n	8001414 <HAL_RCC_OscConfig+0x4b8>
 8001350:	687b      	ldr	r3, [r7, #4]
 8001352:	69db      	ldr	r3, [r3, #28]
 8001354:	2b02      	cmp	r3, #2
 8001356:	d146      	bne.n	80013e6 <HAL_RCC_OscConfig+0x48a>
 8001358:	4b3f      	ldr	r3, [pc, #252]	; (8001458 <HAL_RCC_OscConfig+0x4fc>)
 800135a:	2200      	movs	r2, #0
 800135c:	601a      	str	r2, [r3, #0]
 800135e:	f7ff fb53 	bl	8000a08 <HAL_GetTick>
 8001362:	6138      	str	r0, [r7, #16]
 8001364:	e008      	b.n	8001378 <HAL_RCC_OscConfig+0x41c>
 8001366:	f7ff fb4f 	bl	8000a08 <HAL_GetTick>
 800136a:	4602      	mov	r2, r0
 800136c:	693b      	ldr	r3, [r7, #16]
 800136e:	1ad3      	subs	r3, r2, r3
 8001370:	2b02      	cmp	r3, #2
 8001372:	d901      	bls.n	8001378 <HAL_RCC_OscConfig+0x41c>
 8001374:	2303      	movs	r3, #3
 8001376:	e067      	b.n	8001448 <HAL_RCC_OscConfig+0x4ec>
 8001378:	4b35      	ldr	r3, [pc, #212]	; (8001450 <HAL_RCC_OscConfig+0x4f4>)
 800137a:	681b      	ldr	r3, [r3, #0]
 800137c:	f003 7300 	and.w	r3, r3, #33554432	; 0x2000000
 8001380:	2b00      	cmp	r3, #0
 8001382:	d1f0      	bne.n	8001366 <HAL_RCC_OscConfig+0x40a>
 8001384:	687b      	ldr	r3, [r7, #4]
 8001386:	6a1b      	ldr	r3, [r3, #32]
 8001388:	f5b3 3f80 	cmp.w	r3, #65536	; 0x10000
 800138c:	d108      	bne.n	80013a0 <HAL_RCC_OscConfig+0x444>
 800138e:	4b30      	ldr	r3, [pc, #192]	; (8001450 <HAL_RCC_OscConfig+0x4f4>)
 8001390:	685b      	ldr	r3, [r3, #4]
 8001392:	f423 3200 	bic.w	r2, r3, #131072	; 0x20000
 8001396:	687b      	ldr	r3, [r7, #4]
 8001398:	689b      	ldr	r3, [r3, #8]
 800139a:	492d      	ldr	r1, [pc, #180]	; (8001450 <HAL_RCC_OscConfig+0x4f4>)
 800139c:	4313      	orrs	r3, r2
 800139e:	604b      	str	r3, [r1, #4]
 80013a0:	4b2b      	ldr	r3, [pc, #172]	; (8001450 <HAL_RCC_OscConfig+0x4f4>)
 80013a2:	685b      	ldr	r3, [r3, #4]
 80013a4:	f423 1274 	bic.w	r2, r3, #3997696	; 0x3d0000
 80013a8:	687b      	ldr	r3, [r7, #4]
 80013aa:	6a19      	ldr	r1, [r3, #32]
 80013ac:	687b      	ldr	r3, [r7, #4]
 80013ae:	6a5b      	ldr	r3, [r3, #36]	; 0x24
 80013b0:	430b      	orrs	r3, r1
 80013b2:	4927      	ldr	r1, [pc, #156]	; (8001450 <HAL_RCC_OscConfig+0x4f4>)
 80013b4:	4313      	orrs	r3, r2
 80013b6:	604b      	str	r3, [r1, #4]
 80013b8:	4b27      	ldr	r3, [pc, #156]	; (8001458 <HAL_RCC_OscConfig+0x4fc>)
 80013ba:	2201      	movs	r2, #1
 80013bc:	601a      	str	r2, [r3, #0]
 80013be:	f7ff fb23 	bl	8000a08 <HAL_GetTick>
 80013c2:	6138      	str	r0, [r7, #16]
 80013c4:	e008      	b.n	80013d8 <HAL_RCC_OscConfig+0x47c>
 80013c6:	f7ff fb1f 	bl	8000a08 <HAL_GetTick>
 80013ca:	4602      	mov	r2, r0
 80013cc:	693b      	ldr	r3, [r7, #16]
 80013ce:	1ad3      	subs	r3, r2, r3
 80013d0:	2b02      	cmp	r3, #2
 80013d2:	d901      	bls.n	80013d8 <HAL_RCC_OscConfig+0x47c>
 80013d4:	2303      	movs	r3, #3
 80013d6:	e037      	b.n	8001448 <HAL_RCC_OscConfig+0x4ec>
 80013d8:	4b1d      	ldr	r3, [pc, #116]	; (8001450 <HAL_RCC_OscConfig+0x4f4>)
 80013da:	681b      	ldr	r3, [r3, #0]
 80013dc:	f003 7300 	and.w	r3, r3, #33554432	; 0x2000000
 80013e0:	2b00      	cmp	r3, #0
 80013e2:	d0f0      	beq.n	80013c6 <HAL_RCC_OscConfig+0x46a>
 80013e4:	e02f      	b.n	8001446 <HAL_RCC_OscConfig+0x4ea>
 80013e6:	4b1c      	ldr	r3, [pc, #112]	; (8001458 <HAL_RCC_OscConfig+0x4fc>)
 80013e8:	2200      	movs	r2, #0
 80013ea:	601a      	str	r2, [r3, #0]
 80013ec:	f7ff fb0c 	bl	8000a08 <HAL_GetTick>
 80013f0:	6138      	str	r0, [r7, #16]
 80013f2:	e008      	b.n	8001406 <HAL_RCC_OscConfig+0x4aa>
 80013f4:	f7ff fb08 	bl	8000a08 <HAL_GetTick>
 80013f8:	4602      	mov	r2, r0
 80013fa:	693b      	ldr	r3, [r7, #16]
 80013fc:	1ad3      	subs	r3, r2, r3
 80013fe:	2b02      	cmp	r3, #2
 8001400:	d901      	bls.n	8001406 <HAL_RCC_OscConfig+0x4aa>
 8001402:	2303      	movs	r3, #3
 8001404:	e020      	b.n	8001448 <HAL_RCC_OscConfig+0x4ec>
 8001406:	4b12      	ldr	r3, [pc, #72]	; (8001450 <HAL_RCC_OscConfig+0x4f4>)
 8001408:	681b      	ldr	r3, [r3, #0]
 800140a:	f003 7300 	and.w	r3, r3, #33554432	; 0x2000000
 800140e:	2b00      	cmp	r3, #0
 8001410:	d1f0      	bne.n	80013f4 <HAL_RCC_OscConfig+0x498>
 8001412:	e018      	b.n	8001446 <HAL_RCC_OscConfig+0x4ea>
 8001414:	687b      	ldr	r3, [r7, #4]
 8001416:	69db      	ldr	r3, [r3, #28]
 8001418:	2b01      	cmp	r3, #1
 800141a:	d101      	bne.n	8001420 <HAL_RCC_OscConfig+0x4c4>
 800141c:	2301      	movs	r3, #1
 800141e:	e013      	b.n	8001448 <HAL_RCC_OscConfig+0x4ec>
 8001420:	4b0b      	ldr	r3, [pc, #44]	; (8001450 <HAL_RCC_OscConfig+0x4f4>)
 8001422:	685b      	ldr	r3, [r3, #4]
 8001424:	60fb      	str	r3, [r7, #12]
 8001426:	68fb      	ldr	r3, [r7, #12]
 8001428:	f403 3280 	and.w	r2, r3, #65536	; 0x10000
 800142c:	687b      	ldr	r3, [r7, #4]
 800142e:	6a1b      	ldr	r3, [r3, #32]
 8001430:	429a      	cmp	r2, r3
 8001432:	d106      	bne.n	8001442 <HAL_RCC_OscConfig+0x4e6>
 8001434:	68fb      	ldr	r3, [r7, #12]
 8001436:	f403 1270 	and.w	r2, r3, #3932160	; 0x3c0000
 800143a:	687b      	ldr	r3, [r7, #4]
 800143c:	6a5b      	ldr	r3, [r3, #36]	; 0x24
 800143e:	429a      	cmp	r2, r3
 8001440:	d001      	beq.n	8001446 <HAL_RCC_OscConfig+0x4ea>
 8001442:	2301      	movs	r3, #1
 8001444:	e000      	b.n	8001448 <HAL_RCC_OscConfig+0x4ec>
 8001446:	2300      	movs	r3, #0
 8001448:	4618      	mov	r0, r3
 800144a:	3718      	adds	r7, #24
 800144c:	46bd      	mov	sp, r7
 800144e:	bd80      	pop	{r7, pc}
 8001450:	40021000 	.word	0x40021000
 8001454:	40007000 	.word	0x40007000
 8001458:	42420060 	.word	0x42420060

0800145c <HAL_RCC_ClockConfig>:
 800145c:	b580      	push	{r7, lr}
 800145e:	b084      	sub	sp, #16
 8001460:	af00      	add	r7, sp, #0
 8001462:	6078      	str	r0, [r7, #4]
 8001464:	6039      	str	r1, [r7, #0]
 8001466:	687b      	ldr	r3, [r7, #4]
 8001468:	2b00      	cmp	r3, #0
 800146a:	d101      	bne.n	8001470 <HAL_RCC_ClockConfig+0x14>
 800146c:	2301      	movs	r3, #1
 800146e:	e0d0      	b.n	8001612 <HAL_RCC_ClockConfig+0x1b6>
 8001470:	4b6a      	ldr	r3, [pc, #424]	; (800161c <HAL_RCC_ClockConfig+0x1c0>)
 8001472:	681b      	ldr	r3, [r3, #0]
 8001474:	f003 0307 	and.w	r3, r3, #7
 8001478:	683a      	ldr	r2, [r7, #0]
 800147a:	429a      	cmp	r2, r3
 800147c:	d910      	bls.n	80014a0 <HAL_RCC_ClockConfig+0x44>
 800147e:	4b67      	ldr	r3, [pc, #412]	; (800161c <HAL_RCC_ClockConfig+0x1c0>)
 8001480:	681b      	ldr	r3, [r3, #0]
 8001482:	f023 0207 	bic.w	r2, r3, #7
 8001486:	4965      	ldr	r1, [pc, #404]	; (800161c <HAL_RCC_ClockConfig+0x1c0>)
 8001488:	683b      	ldr	r3, [r7, #0]
 800148a:	4313      	orrs	r3, r2
 800148c:	600b      	str	r3, [r1, #0]
 800148e:	4b63      	ldr	r3, [pc, #396]	; (800161c <HAL_RCC_ClockConfig+0x1c0>)
 8001490:	681b      	ldr	r3, [r3, #0]
 8001492:	f003 0307 	and.w	r3, r3, #7
 8001496:	683a      	ldr	r2, [r7, #0]
 8001498:	429a      	cmp	r2, r3
 800149a:	d001      	beq.n	80014a0 <HAL_RCC_ClockConfig+0x44>
 800149c:	2301      	movs	r3, #1
 800149e:	e0b8      	b.n	8001612 <HAL_RCC_ClockConfig+0x1b6>
 80014a0:	687b      	ldr	r3, [r7, #4]
 80014a2:	681b      	ldr	r3, [r3, #0]
 80014a4:	f003 0302 	and.w	r3, r3, #2
 80014a8:	2b00      	cmp	r3, #0
 80014aa:	d020      	beq.n	80014ee <HAL_RCC_ClockConfig+0x92>
 80014ac:	687b      	ldr	r3, [r7, #4]
 80014ae:	681b      	ldr	r3, [r3, #0]
 80014b0:	f003 0304 	and.w	r3, r3, #4
 80014b4:	2b00      	cmp	r3, #0
 80014b6:	d005      	beq.n	80014c4 <HAL_RCC_ClockConfig+0x68>
 80014b8:	4b59      	ldr	r3, [pc, #356]	; (8001620 <HAL_RCC_ClockConfig+0x1c4>)
 80014ba:	685b      	ldr	r3, [r3, #4]
 80014bc:	4a58      	ldr	r2, [pc, #352]	; (8001620 <HAL_RCC_ClockConfig+0x1c4>)
 80014be:	f443 63e0 	orr.w	r3, r3, #1792	; 0x700
 80014c2:	6053      	str	r3, [r2, #4]
 80014c4:	687b      	ldr	r3, [r7, #4]
 80014c6:	681b      	ldr	r3, [r3, #0]
 80014c8:	f003 0308 	and.w	r3, r3, #8
 80014cc:	2b00      	cmp	r3, #0
 80014ce:	d005      	beq.n	80014dc <HAL_RCC_ClockConfig+0x80>
 80014d0:	4b53      	ldr	r3, [pc, #332]	; (8001620 <HAL_RCC_ClockConfig+0x1c4>)
 80014d2:	685b      	ldr	r3, [r3, #4]
 80014d4:	4a52      	ldr	r2, [pc, #328]	; (8001620 <HAL_RCC_ClockConfig+0x1c4>)
 80014d6:	f443 5360 	orr.w	r3, r3, #14336	; 0x3800
 80014da:	6053      	str	r3, [r2, #4]
 80014dc:	4b50      	ldr	r3, [pc, #320]	; (8001620 <HAL_RCC_ClockConfig+0x1c4>)
 80014de:	685b      	ldr	r3, [r3, #4]
 80014e0:	f023 02f0 	bic.w	r2, r3, #240	; 0xf0
 80014e4:	687b      	ldr	r3, [r7, #4]
 80014e6:	689b      	ldr	r3, [r3, #8]
 80014e8:	494d      	ldr	r1, [pc, #308]	; (8001620 <HAL_RCC_ClockConfig+0x1c4>)
 80014ea:	4313      	orrs	r3, r2
 80014ec:	604b      	str	r3, [r1, #4]
 80014ee:	687b      	ldr	r3, [r7, #4]
 80014f0:	681b      	ldr	r3, [r3, #0]
 80014f2:	f003 0301 	and.w	r3, r3, #1
 80014f6:	2b00      	cmp	r3, #0
 80014f8:	d040      	beq.n	800157c <HAL_RCC_ClockConfig+0x120>
 80014fa:	687b      	ldr	r3, [r7, #4]
 80014fc:	685b      	ldr	r3, [r3, #4]
 80014fe:	2b01      	cmp	r3, #1
 8001500:	d107      	bne.n	8001512 <HAL_RCC_ClockConfig+0xb6>
 8001502:	4b47      	ldr	r3, [pc, #284]	; (8001620 <HAL_RCC_ClockConfig+0x1c4>)
 8001504:	681b      	ldr	r3, [r3, #0]
 8001506:	f403 3300 	and.w	r3, r3, #131072	; 0x20000
 800150a:	2b00      	cmp	r3, #0
 800150c:	d115      	bne.n	800153a <HAL_RCC_ClockConfig+0xde>
 800150e:	2301      	movs	r3, #1
 8001510:	e07f      	b.n	8001612 <HAL_RCC_ClockConfig+0x1b6>
 8001512:	687b      	ldr	r3, [r7, #4]
 8001514:	685b      	ldr	r3, [r3, #4]
 8001516:	2b02      	cmp	r3, #2
 8001518:	d107      	bne.n	800152a <HAL_RCC_ClockConfig+0xce>
 800151a:	4b41      	ldr	r3, [pc, #260]	; (8001620 <HAL_RCC_ClockConfig+0x1c4>)
 800151c:	681b      	ldr	r3, [r3, #0]
 800151e:	f003 7300 	and.w	r3, r3, #33554432	; 0x2000000
 8001522:	2b00      	cmp	r3, #0
 8001524:	d109      	bne.n	800153a <HAL_RCC_ClockConfig+0xde>
 8001526:	2301      	movs	r3, #1
 8001528:	e073      	b.n	8001612 <HAL_RCC_ClockConfig+0x1b6>
 800152a:	4b3d      	ldr	r3, [pc, #244]	; (8001620 <HAL_RCC_ClockConfig+0x1c4>)
 800152c:	681b      	ldr	r3, [r3, #0]
 800152e:	f003 0302 	and.w	r3, r3, #2
 8001532:	2b00      	cmp	r3, #0
 8001534:	d101      	bne.n	800153a <HAL_RCC_ClockConfig+0xde>
 8001536:	2301      	movs	r3, #1
 8001538:	e06b      	b.n	8001612 <HAL_RCC_ClockConfig+0x1b6>
 800153a:	4b39      	ldr	r3, [pc, #228]	; (8001620 <HAL_RCC_ClockConfig+0x1c4>)
 800153c:	685b      	ldr	r3, [r3, #4]
 800153e:	f023 0203 	bic.w	r2, r3, #3
 8001542:	687b      	ldr	r3, [r7, #4]
 8001544:	685b      	ldr	r3, [r3, #4]
 8001546:	4936      	ldr	r1, [pc, #216]	; (8001620 <HAL_RCC_ClockConfig+0x1c4>)
 8001548:	4313      	orrs	r3, r2
 800154a:	604b      	str	r3, [r1, #4]
 800154c:	f7ff fa5c 	bl	8000a08 <HAL_GetTick>
 8001550:	60f8      	str	r0, [r7, #12]
 8001552:	e00a      	b.n	800156a <HAL_RCC_ClockConfig+0x10e>
 8001554:	f7ff fa58 	bl	8000a08 <HAL_GetTick>
 8001558:	4602      	mov	r2, r0
 800155a:	68fb      	ldr	r3, [r7, #12]
 800155c:	1ad3      	subs	r3, r2, r3
 800155e:	f241 3288 	movw	r2, #5000	; 0x1388
 8001562:	4293      	cmp	r3, r2
 8001564:	d901      	bls.n	800156a <HAL_RCC_ClockConfig+0x10e>
 8001566:	2303      	movs	r3, #3
 8001568:	e053      	b.n	8001612 <HAL_RCC_ClockConfig+0x1b6>
 800156a:	4b2d      	ldr	r3, [pc, #180]	; (8001620 <HAL_RCC_ClockConfig+0x1c4>)
 800156c:	685b      	ldr	r3, [r3, #4]
 800156e:	f003 020c 	and.w	r2, r3, #12
 8001572:	687b      	ldr	r3, [r7, #4]
 8001574:	685b      	ldr	r3, [r3, #4]
 8001576:	009b      	lsls	r3, r3, #2
 8001578:	429a      	cmp	r2, r3
 800157a:	d1eb      	bne.n	8001554 <HAL_RCC_ClockConfig+0xf8>
 800157c:	4b27      	ldr	r3, [pc, #156]	; (800161c <HAL_RCC_ClockConfig+0x1c0>)
 800157e:	681b      	ldr	r3, [r3, #0]
 8001580:	f003 0307 	and.w	r3, r3, #7
 8001584:	683a      	ldr	r2, [r7, #0]
 8001586:	429a      	cmp	r2, r3
 8001588:	d210      	bcs.n	80015ac <HAL_RCC_ClockConfig+0x150>
 800158a:	4b24      	ldr	r3, [pc, #144]	; (800161c <HAL_RCC_ClockConfig+0x1c0>)
 800158c:	681b      	ldr	r3, [r3, #0]
 800158e:	f023 0207 	bic.w	r2, r3, #7
 8001592:	4922      	ldr	r1, [pc, #136]	; (800161c <HAL_RCC_ClockConfig+0x1c0>)
 8001594:	683b      	ldr	r3, [r7, #0]
 8001596:	4313      	orrs	r3, r2
 8001598:	600b      	str	r3, [r1, #0]
 800159a:	4b20      	ldr	r3, [pc, #128]	; (800161c <HAL_RCC_ClockConfig+0x1c0>)
 800159c:	681b      	ldr	r3, [r3, #0]
 800159e:	f003 0307 	and.w	r3, r3, #7
 80015a2:	683a      	ldr	r2, [r7, #0]
 80015a4:	429a      	cmp	r2, r3
 80015a6:	d001      	beq.n	80015ac <HAL_RCC_ClockConfig+0x150>
 80015a8:	2301      	movs	r3, #1
 80015aa:	e032      	b.n	8001612 <HAL_RCC_ClockConfig+0x1b6>
 80015ac:	687b      	ldr	r3, [r7, #4]
 80015ae:	681b      	ldr	r3, [r3, #0]
 80015b0:	f003 0304 	and.w	r3, r3, #4
 80015b4:	2b00      	cmp	r3, #0
 80015b6:	d008      	beq.n	80015ca <HAL_RCC_ClockConfig+0x16e>
 80015b8:	4b19      	ldr	r3, [pc, #100]	; (8001620 <HAL_RCC_ClockConfig+0x1c4>)
 80015ba:	685b      	ldr	r3, [r3, #4]
 80015bc:	f423 62e0 	bic.w	r2, r3, #1792	; 0x700
 80015c0:	687b      	ldr	r3, [r7, #4]
 80015c2:	68db      	ldr	r3, [r3, #12]
 80015c4:	4916      	ldr	r1, [pc, #88]	; (8001620 <HAL_RCC_ClockConfig+0x1c4>)
 80015c6:	4313      	orrs	r3, r2
 80015c8:	604b      	str	r3, [r1, #4]
 80015ca:	687b      	ldr	r3, [r7, #4]
 80015cc:	681b      	ldr	r3, [r3, #0]
 80015ce:	f003 0308 	and.w	r3, r3, #8
 80015d2:	2b00      	cmp	r3, #0
 80015d4:	d009      	beq.n	80015ea <HAL_RCC_ClockConfig+0x18e>
 80015d6:	4b12      	ldr	r3, [pc, #72]	; (8001620 <HAL_RCC_ClockConfig+0x1c4>)
 80015d8:	685b      	ldr	r3, [r3, #4]
 80015da:	f423 5260 	bic.w	r2, r3, #14336	; 0x3800
 80015de:	687b      	ldr	r3, [r7, #4]
 80015e0:	691b      	ldr	r3, [r3, #16]
 80015e2:	00db      	lsls	r3, r3, #3
 80015e4:	490e      	ldr	r1, [pc, #56]	; (8001620 <HAL_RCC_ClockConfig+0x1c4>)
 80015e6:	4313      	orrs	r3, r2
 80015e8:	604b      	str	r3, [r1, #4]
 80015ea:	f000 f821 	bl	8001630 <HAL_RCC_GetSysClockFreq>
 80015ee:	4602      	mov	r2, r0
 80015f0:	4b0b      	ldr	r3, [pc, #44]	; (8001620 <HAL_RCC_ClockConfig+0x1c4>)
 80015f2:	685b      	ldr	r3, [r3, #4]
 80015f4:	091b      	lsrs	r3, r3, #4
 80015f6:	f003 030f 	and.w	r3, r3, #15
 80015fa:	490a      	ldr	r1, [pc, #40]	; (8001624 <HAL_RCC_ClockConfig+0x1c8>)
 80015fc:	5ccb      	ldrb	r3, [r1, r3]
 80015fe:	fa22 f303 	lsr.w	r3, r2, r3
 8001602:	4a09      	ldr	r2, [pc, #36]	; (8001628 <HAL_RCC_ClockConfig+0x1cc>)
 8001604:	6013      	str	r3, [r2, #0]
 8001606:	4b09      	ldr	r3, [pc, #36]	; (800162c <HAL_RCC_ClockConfig+0x1d0>)
 8001608:	681b      	ldr	r3, [r3, #0]
 800160a:	4618      	mov	r0, r3
 800160c:	f7ff f9ba 	bl	8000984 <HAL_InitTick>
 8001610:	2300      	movs	r3, #0
 8001612:	4618      	mov	r0, r3
 8001614:	3710      	adds	r7, #16
 8001616:	46bd      	mov	sp, r7
 8001618:	bd80      	pop	{r7, pc}
 800161a:	bf00      	nop
 800161c:	40022000 	.word	0x40022000
 8001620:	40021000 	.word	0x40021000
 8001624:	08001f54 	.word	0x08001f54
 8001628:	20000014 	.word	0x20000014
 800162c:	20000018 	.word	0x20000018

08001630 <HAL_RCC_GetSysClockFreq>:
 8001630:	b480      	push	{r7}
 8001632:	b087      	sub	sp, #28
 8001634:	af00      	add	r7, sp, #0
 8001636:	2300      	movs	r3, #0
 8001638:	60fb      	str	r3, [r7, #12]
 800163a:	2300      	movs	r3, #0
 800163c:	60bb      	str	r3, [r7, #8]
 800163e:	2300      	movs	r3, #0
 8001640:	617b      	str	r3, [r7, #20]
 8001642:	2300      	movs	r3, #0
 8001644:	607b      	str	r3, [r7, #4]
 8001646:	2300      	movs	r3, #0
 8001648:	613b      	str	r3, [r7, #16]
 800164a:	4b1e      	ldr	r3, [pc, #120]	; (80016c4 <HAL_RCC_GetSysClockFreq+0x94>)
 800164c:	685b      	ldr	r3, [r3, #4]
 800164e:	60fb      	str	r3, [r7, #12]
 8001650:	68fb      	ldr	r3, [r7, #12]
 8001652:	f003 030c 	and.w	r3, r3, #12
 8001656:	2b04      	cmp	r3, #4
 8001658:	d002      	beq.n	8001660 <HAL_RCC_GetSysClockFreq+0x30>
 800165a:	2b08      	cmp	r3, #8
 800165c:	d003      	beq.n	8001666 <HAL_RCC_GetSysClockFreq+0x36>
 800165e:	e027      	b.n	80016b0 <HAL_RCC_GetSysClockFreq+0x80>
 8001660:	4b19      	ldr	r3, [pc, #100]	; (80016c8 <HAL_RCC_GetSysClockFreq+0x98>)
 8001662:	613b      	str	r3, [r7, #16]
 8001664:	e027      	b.n	80016b6 <HAL_RCC_GetSysClockFreq+0x86>
 8001666:	68fb      	ldr	r3, [r7, #12]
 8001668:	0c9b      	lsrs	r3, r3, #18
 800166a:	f003 030f 	and.w	r3, r3, #15
 800166e:	4a17      	ldr	r2, [pc, #92]	; (80016cc <HAL_RCC_GetSysClockFreq+0x9c>)
 8001670:	5cd3      	ldrb	r3, [r2, r3]
 8001672:	607b      	str	r3, [r7, #4]
 8001674:	68fb      	ldr	r3, [r7, #12]
 8001676:	f403 3380 	and.w	r3, r3, #65536	; 0x10000
 800167a:	2b00      	cmp	r3, #0
 800167c:	d010      	beq.n	80016a0 <HAL_RCC_GetSysClockFreq+0x70>
 800167e:	4b11      	ldr	r3, [pc, #68]	; (80016c4 <HAL_RCC_GetSysClockFreq+0x94>)
 8001680:	685b      	ldr	r3, [r3, #4]
 8001682:	0c5b      	lsrs	r3, r3, #17
 8001684:	f003 0301 	and.w	r3, r3, #1
 8001688:	4a11      	ldr	r2, [pc, #68]	; (80016d0 <HAL_RCC_GetSysClockFreq+0xa0>)
 800168a:	5cd3      	ldrb	r3, [r2, r3]
 800168c:	60bb      	str	r3, [r7, #8]
 800168e:	687b      	ldr	r3, [r7, #4]
 8001690:	4a0d      	ldr	r2, [pc, #52]	; (80016c8 <HAL_RCC_GetSysClockFreq+0x98>)
 8001692:	fb02 f203 	mul.w	r2, r2, r3
 8001696:	68bb      	ldr	r3, [r7, #8]
 8001698:	fbb2 f3f3 	udiv	r3, r2, r3
 800169c:	617b      	str	r3, [r7, #20]
 800169e:	e004      	b.n	80016aa <HAL_RCC_GetSysClockFreq+0x7a>
 80016a0:	687b      	ldr	r3, [r7, #4]
 80016a2:	4a0c      	ldr	r2, [pc, #48]	; (80016d4 <HAL_RCC_GetSysClockFreq+0xa4>)
 80016a4:	fb02 f303 	mul.w	r3, r2, r3
 80016a8:	617b      	str	r3, [r7, #20]
 80016aa:	697b      	ldr	r3, [r7, #20]
 80016ac:	613b      	str	r3, [r7, #16]
 80016ae:	e002      	b.n	80016b6 <HAL_RCC_GetSysClockFreq+0x86>
 80016b0:	4b05      	ldr	r3, [pc, #20]	; (80016c8 <HAL_RCC_GetSysClockFreq+0x98>)
 80016b2:	613b      	str	r3, [r7, #16]
 80016b4:	bf00      	nop
 80016b6:	693b      	ldr	r3, [r7, #16]
 80016b8:	4618      	mov	r0, r3
 80016ba:	371c      	adds	r7, #28
 80016bc:	46bd      	mov	sp, r7
 80016be:	bc80      	pop	{r7}
 80016c0:	4770      	bx	lr
 80016c2:	bf00      	nop
 80016c4:	40021000 	.word	0x40021000
 80016c8:	007a1200 	.word	0x007a1200
 80016cc:	08001f64 	.word	0x08001f64
 80016d0:	08001f74 	.word	0x08001f74
 80016d4:	003d0900 	.word	0x003d0900

080016d8 <RCC_Delay>:
 80016d8:	b480      	push	{r7}
 80016da:	b085      	sub	sp, #20
 80016dc:	af00      	add	r7, sp, #0
 80016de:	6078      	str	r0, [r7, #4]
 80016e0:	4b0a      	ldr	r3, [pc, #40]	; (800170c <RCC_Delay+0x34>)
 80016e2:	681b      	ldr	r3, [r3, #0]
 80016e4:	4a0a      	ldr	r2, [pc, #40]	; (8001710 <RCC_Delay+0x38>)
 80016e6:	fba2 2303 	umull	r2, r3, r2, r3
 80016ea:	0a5b      	lsrs	r3, r3, #9
 80016ec:	687a      	ldr	r2, [r7, #4]
 80016ee:	fb02 f303 	mul.w	r3, r2, r3
 80016f2:	60fb      	str	r3, [r7, #12]
 80016f4:	bf00      	nop
 80016f6:	68fb      	ldr	r3, [r7, #12]
 80016f8:	1e5a      	subs	r2, r3, #1
 80016fa:	60fa      	str	r2, [r7, #12]
 80016fc:	2b00      	cmp	r3, #0
 80016fe:	d1f9      	bne.n	80016f4 <RCC_Delay+0x1c>
 8001700:	bf00      	nop
 8001702:	bf00      	nop
 8001704:	3714      	adds	r7, #20
 8001706:	46bd      	mov	sp, r7
 8001708:	bc80      	pop	{r7}
 800170a:	4770      	bx	lr
 800170c:	20000014 	.word	0x20000014
 8001710:	10624dd3 	.word	0x10624dd3

08001714 <HAL_TIM_Base_Init>:
 8001714:	b580      	push	{r7, lr}
 8001716:	b082      	sub	sp, #8
 8001718:	af00      	add	r7, sp, #0
 800171a:	6078      	str	r0, [r7, #4]
 800171c:	687b      	ldr	r3, [r7, #4]
 800171e:	2b00      	cmp	r3, #0
 8001720:	d101      	bne.n	8001726 <HAL_TIM_Base_Init+0x12>
 8001722:	2301      	movs	r3, #1
 8001724:	e041      	b.n	80017aa <HAL_TIM_Base_Init+0x96>
 8001726:	687b      	ldr	r3, [r7, #4]
 8001728:	f893 303d 	ldrb.w	r3, [r3, #61]	; 0x3d
 800172c:	b2db      	uxtb	r3, r3
 800172e:	2b00      	cmp	r3, #0
 8001730:	d106      	bne.n	8001740 <HAL_TIM_Base_Init+0x2c>
 8001732:	687b      	ldr	r3, [r7, #4]
 8001734:	2200      	movs	r2, #0
 8001736:	f883 203c 	strb.w	r2, [r3, #60]	; 0x3c
 800173a:	6878      	ldr	r0, [r7, #4]
 800173c:	f7ff f88a 	bl	8000854 <HAL_TIM_Base_MspInit>
 8001740:	687b      	ldr	r3, [r7, #4]
 8001742:	2202      	movs	r2, #2
 8001744:	f883 203d 	strb.w	r2, [r3, #61]	; 0x3d
 8001748:	687b      	ldr	r3, [r7, #4]
 800174a:	681a      	ldr	r2, [r3, #0]
 800174c:	687b      	ldr	r3, [r7, #4]
 800174e:	3304      	adds	r3, #4
 8001750:	4619      	mov	r1, r3
 8001752:	4610      	mov	r0, r2
 8001754:	f000 fa6e 	bl	8001c34 <TIM_Base_SetConfig>
 8001758:	687b      	ldr	r3, [r7, #4]
 800175a:	2201      	movs	r2, #1
 800175c:	f883 2046 	strb.w	r2, [r3, #70]	; 0x46
 8001760:	687b      	ldr	r3, [r7, #4]
 8001762:	2201      	movs	r2, #1
 8001764:	f883 203e 	strb.w	r2, [r3, #62]	; 0x3e
 8001768:	687b      	ldr	r3, [r7, #4]
 800176a:	2201      	movs	r2, #1
 800176c:	f883 203f 	strb.w	r2, [r3, #63]	; 0x3f
 8001770:	687b      	ldr	r3, [r7, #4]
 8001772:	2201      	movs	r2, #1
 8001774:	f883 2040 	strb.w	r2, [r3, #64]	; 0x40
 8001778:	687b      	ldr	r3, [r7, #4]
 800177a:	2201      	movs	r2, #1
 800177c:	f883 2041 	strb.w	r2, [r3, #65]	; 0x41
 8001780:	687b      	ldr	r3, [r7, #4]
 8001782:	2201      	movs	r2, #1
 8001784:	f883 2042 	strb.w	r2, [r3, #66]	; 0x42
 8001788:	687b      	ldr	r3, [r7, #4]
 800178a:	2201      	movs	r2, #1
 800178c:	f883 2043 	strb.w	r2, [r3, #67]	; 0x43
 8001790:	687b      	ldr	r3, [r7, #4]
 8001792:	2201      	movs	r2, #1
 8001794:	f883 2044 	strb.w	r2, [r3, #68]	; 0x44
 8001798:	687b      	ldr	r3, [r7, #4]
 800179a:	2201      	movs	r2, #1
 800179c:	f883 2045 	strb.w	r2, [r3, #69]	; 0x45
 80017a0:	687b      	ldr	r3, [r7, #4]
 80017a2:	2201      	movs	r2, #1
 80017a4:	f883 203d 	strb.w	r2, [r3, #61]	; 0x3d
 80017a8:	2300      	movs	r3, #0
 80017aa:	4618      	mov	r0, r3
 80017ac:	3708      	adds	r7, #8
 80017ae:	46bd      	mov	sp, r7
 80017b0:	bd80      	pop	{r7, pc}
	...

080017b4 <HAL_TIM_Base_Start_IT>:
 80017b4:	b480      	push	{r7}
 80017b6:	b085      	sub	sp, #20
 80017b8:	af00      	add	r7, sp, #0
 80017ba:	6078      	str	r0, [r7, #4]
 80017bc:	687b      	ldr	r3, [r7, #4]
 80017be:	f893 303d 	ldrb.w	r3, [r3, #61]	; 0x3d
 80017c2:	b2db      	uxtb	r3, r3
 80017c4:	2b01      	cmp	r3, #1
 80017c6:	d001      	beq.n	80017cc <HAL_TIM_Base_Start_IT+0x18>
 80017c8:	2301      	movs	r3, #1
 80017ca:	e035      	b.n	8001838 <HAL_TIM_Base_Start_IT+0x84>
 80017cc:	687b      	ldr	r3, [r7, #4]
 80017ce:	2202      	movs	r2, #2
 80017d0:	f883 203d 	strb.w	r2, [r3, #61]	; 0x3d
 80017d4:	687b      	ldr	r3, [r7, #4]
 80017d6:	681b      	ldr	r3, [r3, #0]
 80017d8:	68da      	ldr	r2, [r3, #12]
 80017da:	687b      	ldr	r3, [r7, #4]
 80017dc:	681b      	ldr	r3, [r3, #0]
 80017de:	f042 0201 	orr.w	r2, r2, #1
 80017e2:	60da      	str	r2, [r3, #12]
 80017e4:	687b      	ldr	r3, [r7, #4]
 80017e6:	681b      	ldr	r3, [r3, #0]
 80017e8:	4a16      	ldr	r2, [pc, #88]	; (8001844 <HAL_TIM_Base_Start_IT+0x90>)
 80017ea:	4293      	cmp	r3, r2
 80017ec:	d009      	beq.n	8001802 <HAL_TIM_Base_Start_IT+0x4e>
 80017ee:	687b      	ldr	r3, [r7, #4]
 80017f0:	681b      	ldr	r3, [r3, #0]
 80017f2:	f1b3 4f80 	cmp.w	r3, #1073741824	; 0x40000000
 80017f6:	d004      	beq.n	8001802 <HAL_TIM_Base_Start_IT+0x4e>
 80017f8:	687b      	ldr	r3, [r7, #4]
 80017fa:	681b      	ldr	r3, [r3, #0]
 80017fc:	4a12      	ldr	r2, [pc, #72]	; (8001848 <HAL_TIM_Base_Start_IT+0x94>)
 80017fe:	4293      	cmp	r3, r2
 8001800:	d111      	bne.n	8001826 <HAL_TIM_Base_Start_IT+0x72>
 8001802:	687b      	ldr	r3, [r7, #4]
 8001804:	681b      	ldr	r3, [r3, #0]
 8001806:	689b      	ldr	r3, [r3, #8]
 8001808:	f003 0307 	and.w	r3, r3, #7
 800180c:	60fb      	str	r3, [r7, #12]
 800180e:	68fb      	ldr	r3, [r7, #12]
 8001810:	2b06      	cmp	r3, #6
 8001812:	d010      	beq.n	8001836 <HAL_TIM_Base_Start_IT+0x82>
 8001814:	687b      	ldr	r3, [r7, #4]
 8001816:	681b      	ldr	r3, [r3, #0]
 8001818:	681a      	ldr	r2, [r3, #0]
 800181a:	687b      	ldr	r3, [r7, #4]
 800181c:	681b      	ldr	r3, [r3, #0]
 800181e:	f042 0201 	orr.w	r2, r2, #1
 8001822:	601a      	str	r2, [r3, #0]
 8001824:	e007      	b.n	8001836 <HAL_TIM_Base_Start_IT+0x82>
 8001826:	687b      	ldr	r3, [r7, #4]
 8001828:	681b      	ldr	r3, [r3, #0]
 800182a:	681a      	ldr	r2, [r3, #0]
 800182c:	687b      	ldr	r3, [r7, #4]
 800182e:	681b      	ldr	r3, [r3, #0]
 8001830:	f042 0201 	orr.w	r2, r2, #1
 8001834:	601a      	str	r2, [r3, #0]
 8001836:	2300      	movs	r3, #0
 8001838:	4618      	mov	r0, r3
 800183a:	3714      	adds	r7, #20
 800183c:	46bd      	mov	sp, r7
 800183e:	bc80      	pop	{r7}
 8001840:	4770      	bx	lr
 8001842:	bf00      	nop
 8001844:	40012c00 	.word	0x40012c00
 8001848:	40000400 	.word	0x40000400

0800184c <HAL_TIM_IRQHandler>:
 800184c:	b580      	push	{r7, lr}
 800184e:	b082      	sub	sp, #8
 8001850:	af00      	add	r7, sp, #0
 8001852:	6078      	str	r0, [r7, #4]
 8001854:	687b      	ldr	r3, [r7, #4]
 8001856:	681b      	ldr	r3, [r3, #0]
 8001858:	691b      	ldr	r3, [r3, #16]
 800185a:	f003 0302 	and.w	r3, r3, #2
 800185e:	2b02      	cmp	r3, #2
 8001860:	d122      	bne.n	80018a8 <HAL_TIM_IRQHandler+0x5c>
 8001862:	687b      	ldr	r3, [r7, #4]
 8001864:	681b      	ldr	r3, [r3, #0]
 8001866:	68db      	ldr	r3, [r3, #12]
 8001868:	f003 0302 	and.w	r3, r3, #2
 800186c:	2b02      	cmp	r3, #2
 800186e:	d11b      	bne.n	80018a8 <HAL_TIM_IRQHandler+0x5c>
 8001870:	687b      	ldr	r3, [r7, #4]
 8001872:	681b      	ldr	r3, [r3, #0]
 8001874:	f06f 0202 	mvn.w	r2, #2
 8001878:	611a      	str	r2, [r3, #16]
 800187a:	687b      	ldr	r3, [r7, #4]
 800187c:	2201      	movs	r2, #1
 800187e:	771a      	strb	r2, [r3, #28]
 8001880:	687b      	ldr	r3, [r7, #4]
 8001882:	681b      	ldr	r3, [r3, #0]
 8001884:	699b      	ldr	r3, [r3, #24]
 8001886:	f003 0303 	and.w	r3, r3, #3
 800188a:	2b00      	cmp	r3, #0
 800188c:	d003      	beq.n	8001896 <HAL_TIM_IRQHandler+0x4a>
 800188e:	6878      	ldr	r0, [r7, #4]
 8001890:	f000 f9b4 	bl	8001bfc <HAL_TIM_IC_CaptureCallback>
 8001894:	e005      	b.n	80018a2 <HAL_TIM_IRQHandler+0x56>
 8001896:	6878      	ldr	r0, [r7, #4]
 8001898:	f000 f9a7 	bl	8001bea <HAL_TIM_OC_DelayElapsedCallback>
 800189c:	6878      	ldr	r0, [r7, #4]
 800189e:	f000 f9b6 	bl	8001c0e <HAL_TIM_PWM_PulseFinishedCallback>
 80018a2:	687b      	ldr	r3, [r7, #4]
 80018a4:	2200      	movs	r2, #0
 80018a6:	771a      	strb	r2, [r3, #28]
 80018a8:	687b      	ldr	r3, [r7, #4]
 80018aa:	681b      	ldr	r3, [r3, #0]
 80018ac:	691b      	ldr	r3, [r3, #16]
 80018ae:	f003 0304 	and.w	r3, r3, #4
 80018b2:	2b04      	cmp	r3, #4
 80018b4:	d122      	bne.n	80018fc <HAL_TIM_IRQHandler+0xb0>
 80018b6:	687b      	ldr	r3, [r7, #4]
 80018b8:	681b      	ldr	r3, [r3, #0]
 80018ba:	68db      	ldr	r3, [r3, #12]
 80018bc:	f003 0304 	and.w	r3, r3, #4
 80018c0:	2b04      	cmp	r3, #4
 80018c2:	d11b      	bne.n	80018fc <HAL_TIM_IRQHandler+0xb0>
 80018c4:	687b      	ldr	r3, [r7, #4]
 80018c6:	681b      	ldr	r3, [r3, #0]
 80018c8:	f06f 0204 	mvn.w	r2, #4
 80018cc:	611a      	str	r2, [r3, #16]
 80018ce:	687b      	ldr	r3, [r7, #4]
 80018d0:	2202      	movs	r2, #2
 80018d2:	771a      	strb	r2, [r3, #28]
 80018d4:	687b      	ldr	r3, [r7, #4]
 80018d6:	681b      	ldr	r3, [r3, #0]
 80018d8:	699b      	ldr	r3, [r3, #24]
 80018da:	f403 7340 	and.w	r3, r3, #768	; 0x300
 80018de:	2b00      	cmp	r3, #0
 80018e0:	d003      	beq.n	80018ea <HAL_TIM_IRQHandler+0x9e>
 80018e2:	6878      	ldr	r0, [r7, #4]
 80018e4:	f000 f98a 	bl	8001bfc <HAL_TIM_IC_CaptureCallback>
 80018e8:	e005      	b.n	80018f6 <HAL_TIM_IRQHandler+0xaa>
 80018ea:	6878      	ldr	r0, [r7, #4]
 80018ec:	f000 f97d 	bl	8001bea <HAL_TIM_OC_DelayElapsedCallback>
 80018f0:	6878      	ldr	r0, [r7, #4]
 80018f2:	f000 f98c 	bl	8001c0e <HAL_TIM_PWM_PulseFinishedCallback>
 80018f6:	687b      	ldr	r3, [r7, #4]
 80018f8:	2200      	movs	r2, #0
 80018fa:	771a      	strb	r2, [r3, #28]
 80018fc:	687b      	ldr	r3, [r7, #4]
 80018fe:	681b      	ldr	r3, [r3, #0]
 8001900:	691b      	ldr	r3, [r3, #16]
 8001902:	f003 0308 	and.w	r3, r3, #8
 8001906:	2b08      	cmp	r3, #8
 8001908:	d122      	bne.n	8001950 <HAL_TIM_IRQHandler+0x104>
 800190a:	687b      	ldr	r3, [r7, #4]
 800190c:	681b      	ldr	r3, [r3, #0]
 800190e:	68db      	ldr	r3, [r3, #12]
 8001910:	f003 0308 	and.w	r3, r3, #8
 8001914:	2b08      	cmp	r3, #8
 8001916:	d11b      	bne.n	8001950 <HAL_TIM_IRQHandler+0x104>
 8001918:	687b      	ldr	r3, [r7, #4]
 800191a:	681b      	ldr	r3, [r3, #0]
 800191c:	f06f 0208 	mvn.w	r2, #8
 8001920:	611a      	str	r2, [r3, #16]
 8001922:	687b      	ldr	r3, [r7, #4]
 8001924:	2204      	movs	r2, #4
 8001926:	771a      	strb	r2, [r3, #28]
 8001928:	687b      	ldr	r3, [r7, #4]
 800192a:	681b      	ldr	r3, [r3, #0]
 800192c:	69db      	ldr	r3, [r3, #28]
 800192e:	f003 0303 	and.w	r3, r3, #3
 8001932:	2b00      	cmp	r3, #0
 8001934:	d003      	beq.n	800193e <HAL_TIM_IRQHandler+0xf2>
 8001936:	6878      	ldr	r0, [r7, #4]
 8001938:	f000 f960 	bl	8001bfc <HAL_TIM_IC_CaptureCallback>
 800193c:	e005      	b.n	800194a <HAL_TIM_IRQHandler+0xfe>
 800193e:	6878      	ldr	r0, [r7, #4]
 8001940:	f000 f953 	bl	8001bea <HAL_TIM_OC_DelayElapsedCallback>
 8001944:	6878      	ldr	r0, [r7, #4]
 8001946:	f000 f962 	bl	8001c0e <HAL_TIM_PWM_PulseFinishedCallback>
 800194a:	687b      	ldr	r3, [r7, #4]
 800194c:	2200      	movs	r2, #0
 800194e:	771a      	strb	r2, [r3, #28]
 8001950:	687b      	ldr	r3, [r7, #4]
 8001952:	681b      	ldr	r3, [r3, #0]
 8001954:	691b      	ldr	r3, [r3, #16]
 8001956:	f003 0310 	and.w	r3, r3, #16
 800195a:	2b10      	cmp	r3, #16
 800195c:	d122      	bne.n	80019a4 <HAL_TIM_IRQHandler+0x158>
 800195e:	687b      	ldr	r3, [r7, #4]
 8001960:	681b      	ldr	r3, [r3, #0]
 8001962:	68db      	ldr	r3, [r3, #12]
 8001964:	f003 0310 	and.w	r3, r3, #16
 8001968:	2b10      	cmp	r3, #16
 800196a:	d11b      	bne.n	80019a4 <HAL_TIM_IRQHandler+0x158>
 800196c:	687b      	ldr	r3, [r7, #4]
 800196e:	681b      	ldr	r3, [r3, #0]
 8001970:	f06f 0210 	mvn.w	r2, #16
 8001974:	611a      	str	r2, [r3, #16]
 8001976:	687b      	ldr	r3, [r7, #4]
 8001978:	2208      	movs	r2, #8
 800197a:	771a      	strb	r2, [r3, #28]
 800197c:	687b      	ldr	r3, [r7, #4]
 800197e:	681b      	ldr	r3, [r3, #0]
 8001980:	69db      	ldr	r3, [r3, #28]
 8001982:	f403 7340 	and.w	r3, r3, #768	; 0x300
 8001986:	2b00      	cmp	r3, #0
 8001988:	d003      	beq.n	8001992 <HAL_TIM_IRQHandler+0x146>
 800198a:	6878      	ldr	r0, [r7, #4]
 800198c:	f000 f936 	bl	8001bfc <HAL_TIM_IC_CaptureCallback>
 8001990:	e005      	b.n	800199e <HAL_TIM_IRQHandler+0x152>
 8001992:	6878      	ldr	r0, [r7, #4]
 8001994:	f000 f929 	bl	8001bea <HAL_TIM_OC_DelayElapsedCallback>
 8001998:	6878      	ldr	r0, [r7, #4]
 800199a:	f000 f938 	bl	8001c0e <HAL_TIM_PWM_PulseFinishedCallback>
 800199e:	687b      	ldr	r3, [r7, #4]
 80019a0:	2200      	movs	r2, #0
 80019a2:	771a      	strb	r2, [r3, #28]
 80019a4:	687b      	ldr	r3, [r7, #4]
 80019a6:	681b      	ldr	r3, [r3, #0]
 80019a8:	691b      	ldr	r3, [r3, #16]
 80019aa:	f003 0301 	and.w	r3, r3, #1
 80019ae:	2b01      	cmp	r3, #1
 80019b0:	d10e      	bne.n	80019d0 <HAL_TIM_IRQHandler+0x184>
 80019b2:	687b      	ldr	r3, [r7, #4]
 80019b4:	681b      	ldr	r3, [r3, #0]
 80019b6:	68db      	ldr	r3, [r3, #12]
 80019b8:	f003 0301 	and.w	r3, r3, #1
 80019bc:	2b01      	cmp	r3, #1
 80019be:	d107      	bne.n	80019d0 <HAL_TIM_IRQHandler+0x184>
 80019c0:	687b      	ldr	r3, [r7, #4]
 80019c2:	681b      	ldr	r3, [r3, #0]
 80019c4:	f06f 0201 	mvn.w	r2, #1
 80019c8:	611a      	str	r2, [r3, #16]
 80019ca:	6878      	ldr	r0, [r7, #4]
 80019cc:	f7fe feca 	bl	8000764 <HAL_TIM_PeriodElapsedCallback>
 80019d0:	687b      	ldr	r3, [r7, #4]
 80019d2:	681b      	ldr	r3, [r3, #0]
 80019d4:	691b      	ldr	r3, [r3, #16]
 80019d6:	f003 0380 	and.w	r3, r3, #128	; 0x80
 80019da:	2b80      	cmp	r3, #128	; 0x80
 80019dc:	d10e      	bne.n	80019fc <HAL_TIM_IRQHandler+0x1b0>
 80019de:	687b      	ldr	r3, [r7, #4]
 80019e0:	681b      	ldr	r3, [r3, #0]
 80019e2:	68db      	ldr	r3, [r3, #12]
 80019e4:	f003 0380 	and.w	r3, r3, #128	; 0x80
 80019e8:	2b80      	cmp	r3, #128	; 0x80
 80019ea:	d107      	bne.n	80019fc <HAL_TIM_IRQHandler+0x1b0>
 80019ec:	687b      	ldr	r3, [r7, #4]
 80019ee:	681b      	ldr	r3, [r3, #0]
 80019f0:	f06f 0280 	mvn.w	r2, #128	; 0x80
 80019f4:	611a      	str	r2, [r3, #16]
 80019f6:	6878      	ldr	r0, [r7, #4]
 80019f8:	f000 fa6b 	bl	8001ed2 <HAL_TIMEx_BreakCallback>
 80019fc:	687b      	ldr	r3, [r7, #4]
 80019fe:	681b      	ldr	r3, [r3, #0]
 8001a00:	691b      	ldr	r3, [r3, #16]
 8001a02:	f003 0340 	and.w	r3, r3, #64	; 0x40
 8001a06:	2b40      	cmp	r3, #64	; 0x40
 8001a08:	d10e      	bne.n	8001a28 <HAL_TIM_IRQHandler+0x1dc>
 8001a0a:	687b      	ldr	r3, [r7, #4]
 8001a0c:	681b      	ldr	r3, [r3, #0]
 8001a0e:	68db      	ldr	r3, [r3, #12]
 8001a10:	f003 0340 	and.w	r3, r3, #64	; 0x40
 8001a14:	2b40      	cmp	r3, #64	; 0x40
 8001a16:	d107      	bne.n	8001a28 <HAL_TIM_IRQHandler+0x1dc>
 8001a18:	687b      	ldr	r3, [r7, #4]
 8001a1a:	681b      	ldr	r3, [r3, #0]
 8001a1c:	f06f 0240 	mvn.w	r2, #64	; 0x40
 8001a20:	611a      	str	r2, [r3, #16]
 8001a22:	6878      	ldr	r0, [r7, #4]
 8001a24:	f000 f8fc 	bl	8001c20 <HAL_TIM_TriggerCallback>
 8001a28:	687b      	ldr	r3, [r7, #4]
 8001a2a:	681b      	ldr	r3, [r3, #0]
 8001a2c:	691b      	ldr	r3, [r3, #16]
 8001a2e:	f003 0320 	and.w	r3, r3, #32
 8001a32:	2b20      	cmp	r3, #32
 8001a34:	d10e      	bne.n	8001a54 <HAL_TIM_IRQHandler+0x208>
 8001a36:	687b      	ldr	r3, [r7, #4]
 8001a38:	681b      	ldr	r3, [r3, #0]
 8001a3a:	68db      	ldr	r3, [r3, #12]
 8001a3c:	f003 0320 	and.w	r3, r3, #32
 8001a40:	2b20      	cmp	r3, #32
 8001a42:	d107      	bne.n	8001a54 <HAL_TIM_IRQHandler+0x208>
 8001a44:	687b      	ldr	r3, [r7, #4]
 8001a46:	681b      	ldr	r3, [r3, #0]
 8001a48:	f06f 0220 	mvn.w	r2, #32
 8001a4c:	611a      	str	r2, [r3, #16]
 8001a4e:	6878      	ldr	r0, [r7, #4]
 8001a50:	f000 fa36 	bl	8001ec0 <HAL_TIMEx_CommutCallback>
 8001a54:	bf00      	nop
 8001a56:	3708      	adds	r7, #8
 8001a58:	46bd      	mov	sp, r7
 8001a5a:	bd80      	pop	{r7, pc}

08001a5c <HAL_TIM_ConfigClockSource>:
 8001a5c:	b580      	push	{r7, lr}
 8001a5e:	b084      	sub	sp, #16
 8001a60:	af00      	add	r7, sp, #0
 8001a62:	6078      	str	r0, [r7, #4]
 8001a64:	6039      	str	r1, [r7, #0]
 8001a66:	2300      	movs	r3, #0
 8001a68:	73fb      	strb	r3, [r7, #15]
 8001a6a:	687b      	ldr	r3, [r7, #4]
 8001a6c:	f893 303c 	ldrb.w	r3, [r3, #60]	; 0x3c
 8001a70:	2b01      	cmp	r3, #1
 8001a72:	d101      	bne.n	8001a78 <HAL_TIM_ConfigClockSource+0x1c>
 8001a74:	2302      	movs	r3, #2
 8001a76:	e0b4      	b.n	8001be2 <HAL_TIM_ConfigClockSource+0x186>
 8001a78:	687b      	ldr	r3, [r7, #4]
 8001a7a:	2201      	movs	r2, #1
 8001a7c:	f883 203c 	strb.w	r2, [r3, #60]	; 0x3c
 8001a80:	687b      	ldr	r3, [r7, #4]
 8001a82:	2202      	movs	r2, #2
 8001a84:	f883 203d 	strb.w	r2, [r3, #61]	; 0x3d
 8001a88:	687b      	ldr	r3, [r7, #4]
 8001a8a:	681b      	ldr	r3, [r3, #0]
 8001a8c:	689b      	ldr	r3, [r3, #8]
 8001a8e:	60bb      	str	r3, [r7, #8]
 8001a90:	68bb      	ldr	r3, [r7, #8]
 8001a92:	f023 0377 	bic.w	r3, r3, #119	; 0x77
 8001a96:	60bb      	str	r3, [r7, #8]
 8001a98:	68bb      	ldr	r3, [r7, #8]
 8001a9a:	f423 437f 	bic.w	r3, r3, #65280	; 0xff00
 8001a9e:	60bb      	str	r3, [r7, #8]
 8001aa0:	687b      	ldr	r3, [r7, #4]
 8001aa2:	681b      	ldr	r3, [r3, #0]
 8001aa4:	68ba      	ldr	r2, [r7, #8]
 8001aa6:	609a      	str	r2, [r3, #8]
 8001aa8:	683b      	ldr	r3, [r7, #0]
 8001aaa:	681b      	ldr	r3, [r3, #0]
 8001aac:	f5b3 5f00 	cmp.w	r3, #8192	; 0x2000
 8001ab0:	d03e      	beq.n	8001b30 <HAL_TIM_ConfigClockSource+0xd4>
 8001ab2:	f5b3 5f00 	cmp.w	r3, #8192	; 0x2000
 8001ab6:	f200 8087 	bhi.w	8001bc8 <HAL_TIM_ConfigClockSource+0x16c>
 8001aba:	f5b3 5f80 	cmp.w	r3, #4096	; 0x1000
 8001abe:	f000 8086 	beq.w	8001bce <HAL_TIM_ConfigClockSource+0x172>
 8001ac2:	f5b3 5f80 	cmp.w	r3, #4096	; 0x1000
 8001ac6:	d87f      	bhi.n	8001bc8 <HAL_TIM_ConfigClockSource+0x16c>
 8001ac8:	2b70      	cmp	r3, #112	; 0x70
 8001aca:	d01a      	beq.n	8001b02 <HAL_TIM_ConfigClockSource+0xa6>
 8001acc:	2b70      	cmp	r3, #112	; 0x70
 8001ace:	d87b      	bhi.n	8001bc8 <HAL_TIM_ConfigClockSource+0x16c>
 8001ad0:	2b60      	cmp	r3, #96	; 0x60
 8001ad2:	d050      	beq.n	8001b76 <HAL_TIM_ConfigClockSource+0x11a>
 8001ad4:	2b60      	cmp	r3, #96	; 0x60
 8001ad6:	d877      	bhi.n	8001bc8 <HAL_TIM_ConfigClockSource+0x16c>
 8001ad8:	2b50      	cmp	r3, #80	; 0x50
 8001ada:	d03c      	beq.n	8001b56 <HAL_TIM_ConfigClockSource+0xfa>
 8001adc:	2b50      	cmp	r3, #80	; 0x50
 8001ade:	d873      	bhi.n	8001bc8 <HAL_TIM_ConfigClockSource+0x16c>
 8001ae0:	2b40      	cmp	r3, #64	; 0x40
 8001ae2:	d058      	beq.n	8001b96 <HAL_TIM_ConfigClockSource+0x13a>
 8001ae4:	2b40      	cmp	r3, #64	; 0x40
 8001ae6:	d86f      	bhi.n	8001bc8 <HAL_TIM_ConfigClockSource+0x16c>
 8001ae8:	2b30      	cmp	r3, #48	; 0x30
 8001aea:	d064      	beq.n	8001bb6 <HAL_TIM_ConfigClockSource+0x15a>
 8001aec:	2b30      	cmp	r3, #48	; 0x30
 8001aee:	d86b      	bhi.n	8001bc8 <HAL_TIM_ConfigClockSource+0x16c>
 8001af0:	2b20      	cmp	r3, #32
 8001af2:	d060      	beq.n	8001bb6 <HAL_TIM_ConfigClockSource+0x15a>
 8001af4:	2b20      	cmp	r3, #32
 8001af6:	d867      	bhi.n	8001bc8 <HAL_TIM_ConfigClockSource+0x16c>
 8001af8:	2b00      	cmp	r3, #0
 8001afa:	d05c      	beq.n	8001bb6 <HAL_TIM_ConfigClockSource+0x15a>
 8001afc:	2b10      	cmp	r3, #16
 8001afe:	d05a      	beq.n	8001bb6 <HAL_TIM_ConfigClockSource+0x15a>
 8001b00:	e062      	b.n	8001bc8 <HAL_TIM_ConfigClockSource+0x16c>
 8001b02:	687b      	ldr	r3, [r7, #4]
 8001b04:	6818      	ldr	r0, [r3, #0]
 8001b06:	683b      	ldr	r3, [r7, #0]
 8001b08:	6899      	ldr	r1, [r3, #8]
 8001b0a:	683b      	ldr	r3, [r7, #0]
 8001b0c:	685a      	ldr	r2, [r3, #4]
 8001b0e:	683b      	ldr	r3, [r7, #0]
 8001b10:	68db      	ldr	r3, [r3, #12]
 8001b12:	f000 f95e 	bl	8001dd2 <TIM_ETR_SetConfig>
 8001b16:	687b      	ldr	r3, [r7, #4]
 8001b18:	681b      	ldr	r3, [r3, #0]
 8001b1a:	689b      	ldr	r3, [r3, #8]
 8001b1c:	60bb      	str	r3, [r7, #8]
 8001b1e:	68bb      	ldr	r3, [r7, #8]
 8001b20:	f043 0377 	orr.w	r3, r3, #119	; 0x77
 8001b24:	60bb      	str	r3, [r7, #8]
 8001b26:	687b      	ldr	r3, [r7, #4]
 8001b28:	681b      	ldr	r3, [r3, #0]
 8001b2a:	68ba      	ldr	r2, [r7, #8]
 8001b2c:	609a      	str	r2, [r3, #8]
 8001b2e:	e04f      	b.n	8001bd0 <HAL_TIM_ConfigClockSource+0x174>
 8001b30:	687b      	ldr	r3, [r7, #4]
 8001b32:	6818      	ldr	r0, [r3, #0]
 8001b34:	683b      	ldr	r3, [r7, #0]
 8001b36:	6899      	ldr	r1, [r3, #8]
 8001b38:	683b      	ldr	r3, [r7, #0]
 8001b3a:	685a      	ldr	r2, [r3, #4]
 8001b3c:	683b      	ldr	r3, [r7, #0]
 8001b3e:	68db      	ldr	r3, [r3, #12]
 8001b40:	f000 f947 	bl	8001dd2 <TIM_ETR_SetConfig>
 8001b44:	687b      	ldr	r3, [r7, #4]
 8001b46:	681b      	ldr	r3, [r3, #0]
 8001b48:	689a      	ldr	r2, [r3, #8]
 8001b4a:	687b      	ldr	r3, [r7, #4]
 8001b4c:	681b      	ldr	r3, [r3, #0]
 8001b4e:	f442 4280 	orr.w	r2, r2, #16384	; 0x4000
 8001b52:	609a      	str	r2, [r3, #8]
 8001b54:	e03c      	b.n	8001bd0 <HAL_TIM_ConfigClockSource+0x174>
 8001b56:	687b      	ldr	r3, [r7, #4]
 8001b58:	6818      	ldr	r0, [r3, #0]
 8001b5a:	683b      	ldr	r3, [r7, #0]
 8001b5c:	6859      	ldr	r1, [r3, #4]
 8001b5e:	683b      	ldr	r3, [r7, #0]
 8001b60:	68db      	ldr	r3, [r3, #12]
 8001b62:	461a      	mov	r2, r3
 8001b64:	f000 f8be 	bl	8001ce4 <TIM_TI1_ConfigInputStage>
 8001b68:	687b      	ldr	r3, [r7, #4]
 8001b6a:	681b      	ldr	r3, [r3, #0]
 8001b6c:	2150      	movs	r1, #80	; 0x50
 8001b6e:	4618      	mov	r0, r3
 8001b70:	f000 f915 	bl	8001d9e <TIM_ITRx_SetConfig>
 8001b74:	e02c      	b.n	8001bd0 <HAL_TIM_ConfigClockSource+0x174>
 8001b76:	687b      	ldr	r3, [r7, #4]
 8001b78:	6818      	ldr	r0, [r3, #0]
 8001b7a:	683b      	ldr	r3, [r7, #0]
 8001b7c:	6859      	ldr	r1, [r3, #4]
 8001b7e:	683b      	ldr	r3, [r7, #0]
 8001b80:	68db      	ldr	r3, [r3, #12]
 8001b82:	461a      	mov	r2, r3
 8001b84:	f000 f8dc 	bl	8001d40 <TIM_TI2_ConfigInputStage>
 8001b88:	687b      	ldr	r3, [r7, #4]
 8001b8a:	681b      	ldr	r3, [r3, #0]
 8001b8c:	2160      	movs	r1, #96	; 0x60
 8001b8e:	4618      	mov	r0, r3
 8001b90:	f000 f905 	bl	8001d9e <TIM_ITRx_SetConfig>
 8001b94:	e01c      	b.n	8001bd0 <HAL_TIM_ConfigClockSource+0x174>
 8001b96:	687b      	ldr	r3, [r7, #4]
 8001b98:	6818      	ldr	r0, [r3, #0]
 8001b9a:	683b      	ldr	r3, [r7, #0]
 8001b9c:	6859      	ldr	r1, [r3, #4]
 8001b9e:	683b      	ldr	r3, [r7, #0]
 8001ba0:	68db      	ldr	r3, [r3, #12]
 8001ba2:	461a      	mov	r2, r3
 8001ba4:	f000 f89e 	bl	8001ce4 <TIM_TI1_ConfigInputStage>
 8001ba8:	687b      	ldr	r3, [r7, #4]
 8001baa:	681b      	ldr	r3, [r3, #0]
 8001bac:	2140      	movs	r1, #64	; 0x40
 8001bae:	4618      	mov	r0, r3
 8001bb0:	f000 f8f5 	bl	8001d9e <TIM_ITRx_SetConfig>
 8001bb4:	e00c      	b.n	8001bd0 <HAL_TIM_ConfigClockSource+0x174>
 8001bb6:	687b      	ldr	r3, [r7, #4]
 8001bb8:	681a      	ldr	r2, [r3, #0]
 8001bba:	683b      	ldr	r3, [r7, #0]
 8001bbc:	681b      	ldr	r3, [r3, #0]
 8001bbe:	4619      	mov	r1, r3
 8001bc0:	4610      	mov	r0, r2
 8001bc2:	f000 f8ec 	bl	8001d9e <TIM_ITRx_SetConfig>
 8001bc6:	e003      	b.n	8001bd0 <HAL_TIM_ConfigClockSource+0x174>
 8001bc8:	2301      	movs	r3, #1
 8001bca:	73fb      	strb	r3, [r7, #15]
 8001bcc:	e000      	b.n	8001bd0 <HAL_TIM_ConfigClockSource+0x174>
 8001bce:	bf00      	nop
 8001bd0:	687b      	ldr	r3, [r7, #4]
 8001bd2:	2201      	movs	r2, #1
 8001bd4:	f883 203d 	strb.w	r2, [r3, #61]	; 0x3d
 8001bd8:	687b      	ldr	r3, [r7, #4]
 8001bda:	2200      	movs	r2, #0
 8001bdc:	f883 203c 	strb.w	r2, [r3, #60]	; 0x3c
 8001be0:	7bfb      	ldrb	r3, [r7, #15]
 8001be2:	4618      	mov	r0, r3
 8001be4:	3710      	adds	r7, #16
 8001be6:	46bd      	mov	sp, r7
 8001be8:	bd80      	pop	{r7, pc}

08001bea <HAL_TIM_OC_DelayElapsedCallback>:
 8001bea:	b480      	push	{r7}
 8001bec:	b083      	sub	sp, #12
 8001bee:	af00      	add	r7, sp, #0
 8001bf0:	6078      	str	r0, [r7, #4]
 8001bf2:	bf00      	nop
 8001bf4:	370c      	adds	r7, #12
 8001bf6:	46bd      	mov	sp, r7
 8001bf8:	bc80      	pop	{r7}
 8001bfa:	4770      	bx	lr

08001bfc <HAL_TIM_IC_CaptureCallback>:
 8001bfc:	b480      	push	{r7}
 8001bfe:	b083      	sub	sp, #12
 8001c00:	af00      	add	r7, sp, #0
 8001c02:	6078      	str	r0, [r7, #4]
 8001c04:	bf00      	nop
 8001c06:	370c      	adds	r7, #12
 8001c08:	46bd      	mov	sp, r7
 8001c0a:	bc80      	pop	{r7}
 8001c0c:	4770      	bx	lr

08001c0e <HAL_TIM_PWM_PulseFinishedCallback>:
 8001c0e:	b480      	push	{r7}
 8001c10:	b083      	sub	sp, #12
 8001c12:	af00      	add	r7, sp, #0
 8001c14:	6078      	str	r0, [r7, #4]
 8001c16:	bf00      	nop
 8001c18:	370c      	adds	r7, #12
 8001c1a:	46bd      	mov	sp, r7
 8001c1c:	bc80      	pop	{r7}
 8001c1e:	4770      	bx	lr

08001c20 <HAL_TIM_TriggerCallback>:
 8001c20:	b480      	push	{r7}
 8001c22:	b083      	sub	sp, #12
 8001c24:	af00      	add	r7, sp, #0
 8001c26:	6078      	str	r0, [r7, #4]
 8001c28:	bf00      	nop
 8001c2a:	370c      	adds	r7, #12
 8001c2c:	46bd      	mov	sp, r7
 8001c2e:	bc80      	pop	{r7}
 8001c30:	4770      	bx	lr
	...

08001c34 <TIM_Base_SetConfig>:
 8001c34:	b480      	push	{r7}
 8001c36:	b085      	sub	sp, #20
 8001c38:	af00      	add	r7, sp, #0
 8001c3a:	6078      	str	r0, [r7, #4]
 8001c3c:	6039      	str	r1, [r7, #0]
 8001c3e:	687b      	ldr	r3, [r7, #4]
 8001c40:	681b      	ldr	r3, [r3, #0]
 8001c42:	60fb      	str	r3, [r7, #12]
 8001c44:	687b      	ldr	r3, [r7, #4]
 8001c46:	4a25      	ldr	r2, [pc, #148]	; (8001cdc <TIM_Base_SetConfig+0xa8>)
 8001c48:	4293      	cmp	r3, r2
 8001c4a:	d007      	beq.n	8001c5c <TIM_Base_SetConfig+0x28>
 8001c4c:	687b      	ldr	r3, [r7, #4]
 8001c4e:	f1b3 4f80 	cmp.w	r3, #1073741824	; 0x40000000
 8001c52:	d003      	beq.n	8001c5c <TIM_Base_SetConfig+0x28>
 8001c54:	687b      	ldr	r3, [r7, #4]
 8001c56:	4a22      	ldr	r2, [pc, #136]	; (8001ce0 <TIM_Base_SetConfig+0xac>)
 8001c58:	4293      	cmp	r3, r2
 8001c5a:	d108      	bne.n	8001c6e <TIM_Base_SetConfig+0x3a>
 8001c5c:	68fb      	ldr	r3, [r7, #12]
 8001c5e:	f023 0370 	bic.w	r3, r3, #112	; 0x70
 8001c62:	60fb      	str	r3, [r7, #12]
 8001c64:	683b      	ldr	r3, [r7, #0]
 8001c66:	685b      	ldr	r3, [r3, #4]
 8001c68:	68fa      	ldr	r2, [r7, #12]
 8001c6a:	4313      	orrs	r3, r2
 8001c6c:	60fb      	str	r3, [r7, #12]
 8001c6e:	687b      	ldr	r3, [r7, #4]
 8001c70:	4a1a      	ldr	r2, [pc, #104]	; (8001cdc <TIM_Base_SetConfig+0xa8>)
 8001c72:	4293      	cmp	r3, r2
 8001c74:	d007      	beq.n	8001c86 <TIM_Base_SetConfig+0x52>
 8001c76:	687b      	ldr	r3, [r7, #4]
 8001c78:	f1b3 4f80 	cmp.w	r3, #1073741824	; 0x40000000
 8001c7c:	d003      	beq.n	8001c86 <TIM_Base_SetConfig+0x52>
 8001c7e:	687b      	ldr	r3, [r7, #4]
 8001c80:	4a17      	ldr	r2, [pc, #92]	; (8001ce0 <TIM_Base_SetConfig+0xac>)
 8001c82:	4293      	cmp	r3, r2
 8001c84:	d108      	bne.n	8001c98 <TIM_Base_SetConfig+0x64>
 8001c86:	68fb      	ldr	r3, [r7, #12]
 8001c88:	f423 7340 	bic.w	r3, r3, #768	; 0x300
 8001c8c:	60fb      	str	r3, [r7, #12]
 8001c8e:	683b      	ldr	r3, [r7, #0]
 8001c90:	68db      	ldr	r3, [r3, #12]
 8001c92:	68fa      	ldr	r2, [r7, #12]
 8001c94:	4313      	orrs	r3, r2
 8001c96:	60fb      	str	r3, [r7, #12]
 8001c98:	68fb      	ldr	r3, [r7, #12]
 8001c9a:	f023 0280 	bic.w	r2, r3, #128	; 0x80
 8001c9e:	683b      	ldr	r3, [r7, #0]
 8001ca0:	695b      	ldr	r3, [r3, #20]
 8001ca2:	4313      	orrs	r3, r2
 8001ca4:	60fb      	str	r3, [r7, #12]
 8001ca6:	687b      	ldr	r3, [r7, #4]
 8001ca8:	68fa      	ldr	r2, [r7, #12]
 8001caa:	601a      	str	r2, [r3, #0]
 8001cac:	683b      	ldr	r3, [r7, #0]
 8001cae:	689a      	ldr	r2, [r3, #8]
 8001cb0:	687b      	ldr	r3, [r7, #4]
 8001cb2:	62da      	str	r2, [r3, #44]	; 0x2c
 8001cb4:	683b      	ldr	r3, [r7, #0]
 8001cb6:	681a      	ldr	r2, [r3, #0]
 8001cb8:	687b      	ldr	r3, [r7, #4]
 8001cba:	629a      	str	r2, [r3, #40]	; 0x28
 8001cbc:	687b      	ldr	r3, [r7, #4]
 8001cbe:	4a07      	ldr	r2, [pc, #28]	; (8001cdc <TIM_Base_SetConfig+0xa8>)
 8001cc0:	4293      	cmp	r3, r2
 8001cc2:	d103      	bne.n	8001ccc <TIM_Base_SetConfig+0x98>
 8001cc4:	683b      	ldr	r3, [r7, #0]
 8001cc6:	691a      	ldr	r2, [r3, #16]
 8001cc8:	687b      	ldr	r3, [r7, #4]
 8001cca:	631a      	str	r2, [r3, #48]	; 0x30
 8001ccc:	687b      	ldr	r3, [r7, #4]
 8001cce:	2201      	movs	r2, #1
 8001cd0:	615a      	str	r2, [r3, #20]
 8001cd2:	bf00      	nop
 8001cd4:	3714      	adds	r7, #20
 8001cd6:	46bd      	mov	sp, r7
 8001cd8:	bc80      	pop	{r7}
 8001cda:	4770      	bx	lr
 8001cdc:	40012c00 	.word	0x40012c00
 8001ce0:	40000400 	.word	0x40000400

08001ce4 <TIM_TI1_ConfigInputStage>:
 8001ce4:	b480      	push	{r7}
 8001ce6:	b087      	sub	sp, #28
 8001ce8:	af00      	add	r7, sp, #0
 8001cea:	60f8      	str	r0, [r7, #12]
 8001cec:	60b9      	str	r1, [r7, #8]
 8001cee:	607a      	str	r2, [r7, #4]
 8001cf0:	68fb      	ldr	r3, [r7, #12]
 8001cf2:	6a1b      	ldr	r3, [r3, #32]
 8001cf4:	617b      	str	r3, [r7, #20]
 8001cf6:	68fb      	ldr	r3, [r7, #12]
 8001cf8:	6a1b      	ldr	r3, [r3, #32]
 8001cfa:	f023 0201 	bic.w	r2, r3, #1
 8001cfe:	68fb      	ldr	r3, [r7, #12]
 8001d00:	621a      	str	r2, [r3, #32]
 8001d02:	68fb      	ldr	r3, [r7, #12]
 8001d04:	699b      	ldr	r3, [r3, #24]
 8001d06:	613b      	str	r3, [r7, #16]
 8001d08:	693b      	ldr	r3, [r7, #16]
 8001d0a:	f023 03f0 	bic.w	r3, r3, #240	; 0xf0
 8001d0e:	613b      	str	r3, [r7, #16]
 8001d10:	687b      	ldr	r3, [r7, #4]
 8001d12:	011b      	lsls	r3, r3, #4
 8001d14:	693a      	ldr	r2, [r7, #16]
 8001d16:	4313      	orrs	r3, r2
 8001d18:	613b      	str	r3, [r7, #16]
 8001d1a:	697b      	ldr	r3, [r7, #20]
 8001d1c:	f023 030a 	bic.w	r3, r3, #10
 8001d20:	617b      	str	r3, [r7, #20]
 8001d22:	697a      	ldr	r2, [r7, #20]
 8001d24:	68bb      	ldr	r3, [r7, #8]
 8001d26:	4313      	orrs	r3, r2
 8001d28:	617b      	str	r3, [r7, #20]
 8001d2a:	68fb      	ldr	r3, [r7, #12]
 8001d2c:	693a      	ldr	r2, [r7, #16]
 8001d2e:	619a      	str	r2, [r3, #24]
 8001d30:	68fb      	ldr	r3, [r7, #12]
 8001d32:	697a      	ldr	r2, [r7, #20]
 8001d34:	621a      	str	r2, [r3, #32]
 8001d36:	bf00      	nop
 8001d38:	371c      	adds	r7, #28
 8001d3a:	46bd      	mov	sp, r7
 8001d3c:	bc80      	pop	{r7}
 8001d3e:	4770      	bx	lr

08001d40 <TIM_TI2_ConfigInputStage>:
 8001d40:	b480      	push	{r7}
 8001d42:	b087      	sub	sp, #28
 8001d44:	af00      	add	r7, sp, #0
 8001d46:	60f8      	str	r0, [r7, #12]
 8001d48:	60b9      	str	r1, [r7, #8]
 8001d4a:	607a      	str	r2, [r7, #4]
 8001d4c:	68fb      	ldr	r3, [r7, #12]
 8001d4e:	6a1b      	ldr	r3, [r3, #32]
 8001d50:	617b      	str	r3, [r7, #20]
 8001d52:	68fb      	ldr	r3, [r7, #12]
 8001d54:	6a1b      	ldr	r3, [r3, #32]
 8001d56:	f023 0210 	bic.w	r2, r3, #16
 8001d5a:	68fb      	ldr	r3, [r7, #12]
 8001d5c:	621a      	str	r2, [r3, #32]
 8001d5e:	68fb      	ldr	r3, [r7, #12]
 8001d60:	699b      	ldr	r3, [r3, #24]
 8001d62:	613b      	str	r3, [r7, #16]
 8001d64:	693b      	ldr	r3, [r7, #16]
 8001d66:	f423 4370 	bic.w	r3, r3, #61440	; 0xf000
 8001d6a:	613b      	str	r3, [r7, #16]
 8001d6c:	687b      	ldr	r3, [r7, #4]
 8001d6e:	031b      	lsls	r3, r3, #12
 8001d70:	693a      	ldr	r2, [r7, #16]
 8001d72:	4313      	orrs	r3, r2
 8001d74:	613b      	str	r3, [r7, #16]
 8001d76:	697b      	ldr	r3, [r7, #20]
 8001d78:	f023 03a0 	bic.w	r3, r3, #160	; 0xa0
 8001d7c:	617b      	str	r3, [r7, #20]
 8001d7e:	68bb      	ldr	r3, [r7, #8]
 8001d80:	011b      	lsls	r3, r3, #4
 8001d82:	697a      	ldr	r2, [r7, #20]
 8001d84:	4313      	orrs	r3, r2
 8001d86:	617b      	str	r3, [r7, #20]
 8001d88:	68fb      	ldr	r3, [r7, #12]
 8001d8a:	693a      	ldr	r2, [r7, #16]
 8001d8c:	619a      	str	r2, [r3, #24]
 8001d8e:	68fb      	ldr	r3, [r7, #12]
 8001d90:	697a      	ldr	r2, [r7, #20]
 8001d92:	621a      	str	r2, [r3, #32]
 8001d94:	bf00      	nop
 8001d96:	371c      	adds	r7, #28
 8001d98:	46bd      	mov	sp, r7
 8001d9a:	bc80      	pop	{r7}
 8001d9c:	4770      	bx	lr

08001d9e <TIM_ITRx_SetConfig>:
 8001d9e:	b480      	push	{r7}
 8001da0:	b085      	sub	sp, #20
 8001da2:	af00      	add	r7, sp, #0
 8001da4:	6078      	str	r0, [r7, #4]
 8001da6:	6039      	str	r1, [r7, #0]
 8001da8:	687b      	ldr	r3, [r7, #4]
 8001daa:	689b      	ldr	r3, [r3, #8]
 8001dac:	60fb      	str	r3, [r7, #12]
 8001dae:	68fb      	ldr	r3, [r7, #12]
 8001db0:	f023 0370 	bic.w	r3, r3, #112	; 0x70
 8001db4:	60fb      	str	r3, [r7, #12]
 8001db6:	683a      	ldr	r2, [r7, #0]
 8001db8:	68fb      	ldr	r3, [r7, #12]
 8001dba:	4313      	orrs	r3, r2
 8001dbc:	f043 0307 	orr.w	r3, r3, #7
 8001dc0:	60fb      	str	r3, [r7, #12]
 8001dc2:	687b      	ldr	r3, [r7, #4]
 8001dc4:	68fa      	ldr	r2, [r7, #12]
 8001dc6:	609a      	str	r2, [r3, #8]
 8001dc8:	bf00      	nop
 8001dca:	3714      	adds	r7, #20
 8001dcc:	46bd      	mov	sp, r7
 8001dce:	bc80      	pop	{r7}
 8001dd0:	4770      	bx	lr

08001dd2 <TIM_ETR_SetConfig>:
 8001dd2:	b480      	push	{r7}
 8001dd4:	b087      	sub	sp, #28
 8001dd6:	af00      	add	r7, sp, #0
 8001dd8:	60f8      	str	r0, [r7, #12]
 8001dda:	60b9      	str	r1, [r7, #8]
 8001ddc:	607a      	str	r2, [r7, #4]
 8001dde:	603b      	str	r3, [r7, #0]
 8001de0:	68fb      	ldr	r3, [r7, #12]
 8001de2:	689b      	ldr	r3, [r3, #8]
 8001de4:	617b      	str	r3, [r7, #20]
 8001de6:	697b      	ldr	r3, [r7, #20]
 8001de8:	f423 437f 	bic.w	r3, r3, #65280	; 0xff00
 8001dec:	617b      	str	r3, [r7, #20]
 8001dee:	683b      	ldr	r3, [r7, #0]
 8001df0:	021a      	lsls	r2, r3, #8
 8001df2:	687b      	ldr	r3, [r7, #4]
 8001df4:	431a      	orrs	r2, r3
 8001df6:	68bb      	ldr	r3, [r7, #8]
 8001df8:	4313      	orrs	r3, r2
 8001dfa:	697a      	ldr	r2, [r7, #20]
 8001dfc:	4313      	orrs	r3, r2
 8001dfe:	617b      	str	r3, [r7, #20]
 8001e00:	68fb      	ldr	r3, [r7, #12]
 8001e02:	697a      	ldr	r2, [r7, #20]
 8001e04:	609a      	str	r2, [r3, #8]
 8001e06:	bf00      	nop
 8001e08:	371c      	adds	r7, #28
 8001e0a:	46bd      	mov	sp, r7
 8001e0c:	bc80      	pop	{r7}
 8001e0e:	4770      	bx	lr

08001e10 <HAL_TIMEx_MasterConfigSynchronization>:
 8001e10:	b480      	push	{r7}
 8001e12:	b085      	sub	sp, #20
 8001e14:	af00      	add	r7, sp, #0
 8001e16:	6078      	str	r0, [r7, #4]
 8001e18:	6039      	str	r1, [r7, #0]
 8001e1a:	687b      	ldr	r3, [r7, #4]
 8001e1c:	f893 303c 	ldrb.w	r3, [r3, #60]	; 0x3c
 8001e20:	2b01      	cmp	r3, #1
 8001e22:	d101      	bne.n	8001e28 <HAL_TIMEx_MasterConfigSynchronization+0x18>
 8001e24:	2302      	movs	r3, #2
 8001e26:	e041      	b.n	8001eac <HAL_TIMEx_MasterConfigSynchronization+0x9c>
 8001e28:	687b      	ldr	r3, [r7, #4]
 8001e2a:	2201      	movs	r2, #1
 8001e2c:	f883 203c 	strb.w	r2, [r3, #60]	; 0x3c
 8001e30:	687b      	ldr	r3, [r7, #4]
 8001e32:	2202      	movs	r2, #2
 8001e34:	f883 203d 	strb.w	r2, [r3, #61]	; 0x3d
 8001e38:	687b      	ldr	r3, [r7, #4]
 8001e3a:	681b      	ldr	r3, [r3, #0]
 8001e3c:	685b      	ldr	r3, [r3, #4]
 8001e3e:	60fb      	str	r3, [r7, #12]
 8001e40:	687b      	ldr	r3, [r7, #4]
 8001e42:	681b      	ldr	r3, [r3, #0]
 8001e44:	689b      	ldr	r3, [r3, #8]
 8001e46:	60bb      	str	r3, [r7, #8]
 8001e48:	68fb      	ldr	r3, [r7, #12]
 8001e4a:	f023 0370 	bic.w	r3, r3, #112	; 0x70
 8001e4e:	60fb      	str	r3, [r7, #12]
 8001e50:	683b      	ldr	r3, [r7, #0]
 8001e52:	681b      	ldr	r3, [r3, #0]
 8001e54:	68fa      	ldr	r2, [r7, #12]
 8001e56:	4313      	orrs	r3, r2
 8001e58:	60fb      	str	r3, [r7, #12]
 8001e5a:	687b      	ldr	r3, [r7, #4]
 8001e5c:	681b      	ldr	r3, [r3, #0]
 8001e5e:	68fa      	ldr	r2, [r7, #12]
 8001e60:	605a      	str	r2, [r3, #4]
 8001e62:	687b      	ldr	r3, [r7, #4]
 8001e64:	681b      	ldr	r3, [r3, #0]
 8001e66:	4a14      	ldr	r2, [pc, #80]	; (8001eb8 <HAL_TIMEx_MasterConfigSynchronization+0xa8>)
 8001e68:	4293      	cmp	r3, r2
 8001e6a:	d009      	beq.n	8001e80 <HAL_TIMEx_MasterConfigSynchronization+0x70>
 8001e6c:	687b      	ldr	r3, [r7, #4]
 8001e6e:	681b      	ldr	r3, [r3, #0]
 8001e70:	f1b3 4f80 	cmp.w	r3, #1073741824	; 0x40000000
 8001e74:	d004      	beq.n	8001e80 <HAL_TIMEx_MasterConfigSynchronization+0x70>
 8001e76:	687b      	ldr	r3, [r7, #4]
 8001e78:	681b      	ldr	r3, [r3, #0]
 8001e7a:	4a10      	ldr	r2, [pc, #64]	; (8001ebc <HAL_TIMEx_MasterConfigSynchronization+0xac>)
 8001e7c:	4293      	cmp	r3, r2
 8001e7e:	d10c      	bne.n	8001e9a <HAL_TIMEx_MasterConfigSynchronization+0x8a>
 8001e80:	68bb      	ldr	r3, [r7, #8]
 8001e82:	f023 0380 	bic.w	r3, r3, #128	; 0x80
 8001e86:	60bb      	str	r3, [r7, #8]
 8001e88:	683b      	ldr	r3, [r7, #0]
 8001e8a:	685b      	ldr	r3, [r3, #4]
 8001e8c:	68ba      	ldr	r2, [r7, #8]
 8001e8e:	4313      	orrs	r3, r2
 8001e90:	60bb      	str	r3, [r7, #8]
 8001e92:	687b      	ldr	r3, [r7, #4]
 8001e94:	681b      	ldr	r3, [r3, #0]
 8001e96:	68ba      	ldr	r2, [r7, #8]
 8001e98:	609a      	str	r2, [r3, #8]
 8001e9a:	687b      	ldr	r3, [r7, #4]
 8001e9c:	2201      	movs	r2, #1
 8001e9e:	f883 203d 	strb.w	r2, [r3, #61]	; 0x3d
 8001ea2:	687b      	ldr	r3, [r7, #4]
 8001ea4:	2200      	movs	r2, #0
 8001ea6:	f883 203c 	strb.w	r2, [r3, #60]	; 0x3c
 8001eaa:	2300      	movs	r3, #0
 8001eac:	4618      	mov	r0, r3
 8001eae:	3714      	adds	r7, #20
 8001eb0:	46bd      	mov	sp, r7
 8001eb2:	bc80      	pop	{r7}
 8001eb4:	4770      	bx	lr
 8001eb6:	bf00      	nop
 8001eb8:	40012c00 	.word	0x40012c00
 8001ebc:	40000400 	.word	0x40000400

08001ec0 <HAL_TIMEx_CommutCallback>:
 8001ec0:	b480      	push	{r7}
 8001ec2:	b083      	sub	sp, #12
 8001ec4:	af00      	add	r7, sp, #0
 8001ec6:	6078      	str	r0, [r7, #4]
 8001ec8:	bf00      	nop
 8001eca:	370c      	adds	r7, #12
 8001ecc:	46bd      	mov	sp, r7
 8001ece:	bc80      	pop	{r7}
 8001ed0:	4770      	bx	lr

08001ed2 <HAL_TIMEx_BreakCallback>:
 8001ed2:	b480      	push	{r7}
 8001ed4:	b083      	sub	sp, #12
 8001ed6:	af00      	add	r7, sp, #0
 8001ed8:	6078      	str	r0, [r7, #4]
 8001eda:	bf00      	nop
 8001edc:	370c      	adds	r7, #12
 8001ede:	46bd      	mov	sp, r7
 8001ee0:	bc80      	pop	{r7}
 8001ee2:	4770      	bx	lr

08001ee4 <__libc_init_array>:
 8001ee4:	b570      	push	{r4, r5, r6, lr}
 8001ee6:	2600      	movs	r6, #0
 8001ee8:	4d0c      	ldr	r5, [pc, #48]	; (8001f1c <__libc_init_array+0x38>)
 8001eea:	4c0d      	ldr	r4, [pc, #52]	; (8001f20 <__libc_init_array+0x3c>)
 8001eec:	1b64      	subs	r4, r4, r5
 8001eee:	10a4      	asrs	r4, r4, #2
 8001ef0:	42a6      	cmp	r6, r4
 8001ef2:	d109      	bne.n	8001f08 <__libc_init_array+0x24>
 8001ef4:	f000 f822 	bl	8001f3c <_init>
 8001ef8:	2600      	movs	r6, #0
 8001efa:	4d0a      	ldr	r5, [pc, #40]	; (8001f24 <__libc_init_array+0x40>)
 8001efc:	4c0a      	ldr	r4, [pc, #40]	; (8001f28 <__libc_init_array+0x44>)
 8001efe:	1b64      	subs	r4, r4, r5
 8001f00:	10a4      	asrs	r4, r4, #2
 8001f02:	42a6      	cmp	r6, r4
 8001f04:	d105      	bne.n	8001f12 <__libc_init_array+0x2e>
 8001f06:	bd70      	pop	{r4, r5, r6, pc}
 8001f08:	f855 3b04 	ldr.w	r3, [r5], #4
 8001f0c:	4798      	blx	r3
 8001f0e:	3601      	adds	r6, #1
 8001f10:	e7ee      	b.n	8001ef0 <__libc_init_array+0xc>
 8001f12:	f855 3b04 	ldr.w	r3, [r5], #4
 8001f16:	4798      	blx	r3
 8001f18:	3601      	adds	r6, #1
 8001f1a:	e7f2      	b.n	8001f02 <__libc_init_array+0x1e>
 8001f1c:	08001f78 	.word	0x08001f78
 8001f20:	08001f78 	.word	0x08001f78
 8001f24:	08001f78 	.word	0x08001f78
 8001f28:	08001f7c 	.word	0x08001f7c

08001f2c <memset>:
 8001f2c:	4603      	mov	r3, r0
 8001f2e:	4402      	add	r2, r0
 8001f30:	4293      	cmp	r3, r2
 8001f32:	d100      	bne.n	8001f36 <memset+0xa>
 8001f34:	4770      	bx	lr
 8001f36:	f803 1b01 	strb.w	r1, [r3], #1
 8001f3a:	e7f9      	b.n	8001f30 <memset+0x4>

08001f3c <_init>:
 8001f3c:	b5f8      	push	{r3, r4, r5, r6, r7, lr}
 8001f3e:	bf00      	nop
 8001f40:	bcf8      	pop	{r3, r4, r5, r6, r7}
 8001f42:	bc08      	pop	{r3}
 8001f44:	469e      	mov	lr, r3
 8001f46:	4770      	bx	lr

08001f48 <_fini>:
 8001f48:	b5f8      	push	{r3, r4, r5, r6, r7, lr}
 8001f4a:	bf00      	nop
 8001f4c:	bcf8      	pop	{r3, r4, r5, r6, r7}
 8001f4e:	bc08      	pop	{r3}
 8001f50:	469e      	mov	lr, r3
 8001f52:	4770      	bx	lr
